
/home/paul/carbon/cc2-firmware/stock/extractions/kernel-01.03.01.89.extracted/460C/decompressed.bin:     file format binary


Disassembly of section .data:

c043c000 <.data+0x434000>:
c043c000:	13a0a036 	movne	sl, #54	@ 0x36
c043c004:	03a0a001 	moveq	sl, #1
c043c008:	e3520000 	cmp	r2, #0
c043c00c:	13a03018 	movne	r3, #24
c043c010:	10222a93 	mlane	r2, r3, sl, r2
c043c014:	e28d3010 	add	r3, sp, #16
c043c018:	15922004 	ldrne	r2, [r2, #4]
c043c01c:	ebffff70 	bl	0xc043bde4
c043c020:	e1a0100a 	mov	r1, sl
c043c024:	e1a07000 	mov	r7, r0
c043c028:	e1a00004 	mov	r0, r4
c043c02c:	ebffff66 	bl	0xc043bdcc
c043c030:	e59f1210 	ldr	r1, [pc, #528]	@ 0xc043c248
c043c034:	e28d3014 	add	r3, sp, #20
c043c038:	e2802001 	add	r2, r0, #1
c043c03c:	e1a00006 	mov	r0, r6
c043c040:	ebffff67 	bl	0xc043bde4
c043c044:	e5942104 	ldr	r2, [r4, #260]	@ 0x104
c043c048:	e59f11fc 	ldr	r1, [pc, #508]	@ 0xc043c24c
c043c04c:	e3520000 	cmp	r2, #0
c043c050:	13a03018 	movne	r3, #24
c043c054:	10222a93 	mlane	r2, r3, sl, r2
c043c058:	e1877000 	orr	r7, r7, r0
c043c05c:	e28d3018 	add	r3, sp, #24
c043c060:	e1a00006 	mov	r0, r6
c043c064:	e6ef7077 	uxtb	r7, r7
c043c068:	1592200c 	ldrne	r2, [r2, #12]
c043c06c:	ebffff5c 	bl	0xc043bde4
c043c070:	e1870000 	orr	r0, r7, r0
c043c074:	e31000ff 	tst	r0, #255	@ 0xff
c043c078:	0a000007 	beq	0xc043c09c
c043c07c:	e59d3018 	ldr	r3, [sp, #24]
c043c080:	e1a0100a 	mov	r1, sl
c043c084:	e59d2010 	ldr	r2, [sp, #16]
c043c088:	e1a00004 	mov	r0, r4
c043c08c:	e58d3000 	str	r3, [sp]
c043c090:	e59d3014 	ldr	r3, [sp, #20]
c043c094:	e2433001 	sub	r3, r3, #1
c043c098:	ebffff68 	bl	0xc043be40
c043c09c:	e35b0000 	cmp	fp, #0
c043c0a0:	e1a00004 	mov	r0, r4
c043c0a4:	13a0703a 	movne	r7, #58	@ 0x3a
c043c0a8:	03a07018 	moveq	r7, #24
c043c0ac:	e1a01007 	mov	r1, r7
c043c0b0:	ebffff45 	bl	0xc043bdcc
c043c0b4:	e59f1194 	ldr	r1, [pc, #404]	@ 0xc043c250
c043c0b8:	e28d3014 	add	r3, sp, #20
c043c0bc:	e1a02000 	mov	r2, r0
c043c0c0:	e1a00006 	mov	r0, r6
c043c0c4:	ebffff46 	bl	0xc043bde4
c043c0c8:	e5942104 	ldr	r2, [r4, #260]	@ 0x104
c043c0cc:	e59f1180 	ldr	r1, [pc, #384]	@ 0xc043c254
c043c0d0:	e3520000 	cmp	r2, #0
c043c0d4:	13a03018 	movne	r3, #24
c043c0d8:	10222793 	mlane	r2, r3, r7, r2
c043c0dc:	e1a0a000 	mov	sl, r0
c043c0e0:	e28d3018 	add	r3, sp, #24
c043c0e4:	e1a00006 	mov	r0, r6
c043c0e8:	1592200c 	ldrne	r2, [r2, #12]
c043c0ec:	ebffff3c 	bl	0xc043bde4
c043c0f0:	e18a0000 	orr	r0, sl, r0
c043c0f4:	e31000ff 	tst	r0, #255	@ 0xff
c043c0f8:	0a000006 	beq	0xc043c118
c043c0fc:	e59d3018 	ldr	r3, [sp, #24]
c043c100:	e3a02000 	mov	r2, #0
c043c104:	e1a01007 	mov	r1, r7
c043c108:	e1a00004 	mov	r0, r4
c043c10c:	e58d3000 	str	r3, [sp]
c043c110:	e59d3014 	ldr	r3, [sp, #20]
c043c114:	ebffff49 	bl	0xc043be40
c043c118:	e3580000 	cmp	r8, #0
c043c11c:	0a00003c 	beq	0xc043c214
c043c120:	e1a01009 	mov	r1, r9
c043c124:	e1a00004 	mov	r0, r4
c043c128:	ebffff27 	bl	0xc043bdcc
c043c12c:	e2891001 	add	r1, r9, #1
c043c130:	e5880000 	str	r0, [r8]
c043c134:	e1a00004 	mov	r0, r4
c043c138:	ebffff23 	bl	0xc043bdcc
c043c13c:	e59f1114 	ldr	r1, [pc, #276]	@ 0xc043c258
c043c140:	e5880004 	str	r0, [r8, #4]
c043c144:	e1a00006 	mov	r0, r6
c043c148:	ebfdc822 	bl	0xc03ae1d8
c043c14c:	e3500000 	cmp	r0, #0
c043c150:	e5c80008 	strb	r0, [r8, #8]
c043c154:	e1a00006 	mov	r0, r6
c043c158:	15943104 	ldrne	r3, [r4, #260]	@ 0x104
c043c15c:	10833005 	addne	r3, r3, r5
c043c160:	19930006 	ldmibne	r3, {r1, r2}
c043c164:	10422001 	subne	r2, r2, r1
c043c168:	e59f10ec 	ldr	r1, [pc, #236]	@ 0xc043c25c
c043c16c:	15832008 	strne	r2, [r3, #8]
c043c170:	13a02000 	movne	r2, #0
c043c174:	15832004 	strne	r2, [r3, #4]
c043c178:	ebfdc816 	bl	0xc03ae1d8
c043c17c:	e3500000 	cmp	r0, #0
c043c180:	e5c80009 	strb	r0, [r8, #9]
c043c184:	0a000007 	beq	0xc043c1a8
c043c188:	e5942104 	ldr	r2, [r4, #260]	@ 0x104
c043c18c:	e2853018 	add	r3, r5, #24
c043c190:	e0823003 	add	r3, r2, r3
c043c194:	e9930006 	ldmib	r3, {r1, r2}
c043c198:	e0422001 	sub	r2, r2, r1
c043c19c:	e5832008 	str	r2, [r3, #8]
c043c1a0:	e3a02000 	mov	r2, #0
c043c1a4:	e5832004 	str	r2, [r3, #4]
c043c1a8:	e59f10b0 	ldr	r1, [pc, #176]	@ 0xc043c260
c043c1ac:	e1a00006 	mov	r0, r6
c043c1b0:	ebfdc808 	bl	0xc03ae1d8
c043c1b4:	e3500000 	cmp	r0, #0
c043c1b8:	e5c8000a 	strb	r0, [r8, #10]
c043c1bc:	0a000014 	beq	0xc043c214
c043c1c0:	e594c104 	ldr	ip, [r4, #260]	@ 0x104
c043c1c4:	e28de01c 	add	lr, sp, #28
c043c1c8:	e08c7005 	add	r7, ip, r5
c043c1cc:	e2855018 	add	r5, r5, #24
c043c1d0:	e08cc005 	add	ip, ip, r5
c043c1d4:	e1a06007 	mov	r6, r7
c043c1d8:	e8b6000f 	ldm	r6!, {r0, r1, r2, r3}
c043c1dc:	e8ae000f 	stmia	lr!, {r0, r1, r2, r3}
c043c1e0:	e8960003 	ldm	r6, {r0, r1}
c043c1e4:	e88e0003 	stm	lr, {r0, r1}
c043c1e8:	e8bc000f 	ldm	ip!, {r0, r1, r2, r3}
c043c1ec:	e8a7000f 	stmia	r7!, {r0, r1, r2, r3}
c043c1f0:	e89c0003 	ldm	ip, {r0, r1}
c043c1f4:	e28dc01c 	add	ip, sp, #28
c043c1f8:	e8860003 	stm	r6, {r0, r1}
c043c1fc:	e5943104 	ldr	r3, [r4, #260]	@ 0x104
c043c200:	e0835005 	add	r5, r3, r5
c043c204:	e8bc000f 	ldm	ip!, {r0, r1, r2, r3}
c043c208:	e8a5000f 	stmia	r5!, {r0, r1, r2, r3}
c043c20c:	e89e0003 	ldm	lr, {r0, r1}
c043c210:	e8850003 	stm	r5, {r0, r1}
c043c214:	e59d300c 	ldr	r3, [sp, #12]
c043c218:	e59d2034 	ldr	r2, [sp, #52]	@ 0x34
c043c21c:	e5933000 	ldr	r3, [r3]
c043c220:	e1520003 	cmp	r2, r3
c043c224:	0a000000 	beq	0xc043c22c
c043c228:	ebf373df 	bl	0xc01191ac
c043c22c:	e28dd03c 	add	sp, sp, #60	@ 0x3c
c043c230:	e8bd8ff0 	pop	{r4, r5, r6, r7, r8, r9, sl, fp, pc}
c043c234:	c0a04e08 	adcgt	r4, r0, r8, lsl #28
c043c238:	c080267c 	addgt	r2, r0, ip, ror r6
c043c23c:	c080268e 	addgt	r2, r0, lr, lsl #13
c043c240:	c08026a1 	addgt	r2, r0, r1, lsr #13
c043c244:	c08026b4 			@ <UNDEFINED> instruction: 0xc08026b4
c043c248:	c08026c6 	addgt	r2, r0, r6, asr #13
c043c24c:	c08026d9 	ldrdgt	r2, [r0], r9
c043c250:	c08026ec 	addgt	r2, r0, ip, ror #13
c043c254:	c0802705 	addgt	r2, r0, r5, lsl #14
c043c258:	c080271f 	addgt	r2, r0, pc, lsl r7
c043c25c:	c0802736 	addgt	r2, r0, r6, lsr r7
c043c260:	c080274d 	addgt	r2, r0, sp, asr #14
c043c264:	e5d1c008 	ldrb	ip, [r1, #8]
c043c268:	e35c0000 	cmp	ip, #0
c043c26c:	1591c000 	ldrne	ip, [r1]
c043c270:	104c2002 	subne	r2, ip, r2
c043c274:	e5d1c009 	ldrb	ip, [r1, #9]
c043c278:	e35c0000 	cmp	ip, #0
c043c27c:	1591c004 	ldrne	ip, [r1, #4]
c043c280:	e5d1100a 	ldrb	r1, [r1, #10]
c043c284:	104c3003 	subne	r3, ip, r3
c043c288:	e3510000 	cmp	r1, #0
c043c28c:	11a01003 	movne	r1, r3
c043c290:	01a01002 	moveq	r1, r2
c043c294:	11a03002 	movne	r3, r2
c043c298:	e1c010b0 	strh	r1, [r0]
c043c29c:	e1c030b2 	strh	r3, [r0, #2]
c043c2a0:	e12fff1e 	bx	lr
c043c2a4:	e3a03000 	mov	r3, #0
c043c2a8:	e1a02003 	mov	r2, r3
c043c2ac:	e1a01003 	mov	r1, r3
c043c2b0:	eafff236 	b	0xc0438b90
c043c2b4:	e1a03002 	mov	r3, r2
c043c2b8:	e1a02001 	mov	r2, r1
c043c2bc:	e3a01003 	mov	r1, #3
c043c2c0:	eafff232 	b	0xc0438b90
c043c2c4:	e92d4073 	push	{r0, r1, r4, r5, r6, lr}
c043c2c8:	e1a04000 	mov	r4, r0
c043c2cc:	ebffed46 	bl	0xc04377ec
c043c2d0:	e3500000 	cmp	r0, #0
c043c2d4:	e5840008 	str	r0, [r4, #8]
c043c2d8:	03e0500b 	mvneq	r5, #11
c043c2dc:	0a0000d8 	beq	0xc043c644
c043c2e0:	e5943000 	ldr	r3, [r4]
c043c2e4:	e3a05000 	mov	r5, #0
c043c2e8:	e59f6360 	ldr	r6, [pc, #864]	@ 0xc043c650
c043c2ec:	e5803000 	str	r3, [r0]
c043c2f0:	e1a00005 	mov	r0, r5
c043c2f4:	e5942010 	ldr	r2, [r4, #16]
c043c2f8:	e5943008 	ldr	r3, [r4, #8]
c043c2fc:	e5d22000 	ldrb	r2, [r2]
c043c300:	e1c320bc 	strh	r2, [r3, #12]
c043c304:	e5943008 	ldr	r3, [r4, #8]
c043c308:	e1c351b0 	strh	r5, [r3, #16]
c043c30c:	e5943008 	ldr	r3, [r4, #8]
c043c310:	e1c351b2 	strh	r5, [r3, #18]
c043c314:	e994000c 	ldmib	r4, {r2, r3}
c043c318:	e5922058 	ldr	r2, [r2, #88]	@ 0x58
c043c31c:	e58321f8 	str	r2, [r3, #504]	@ 0x1f8
c043c320:	e5943008 	ldr	r3, [r4, #8]
c043c324:	e5834214 	str	r4, [r3, #532]	@ 0x214
c043c328:	e5941008 	ldr	r1, [r4, #8]
c043c32c:	e2811018 	add	r1, r1, #24
c043c330:	eb083269 	bl	0xc0648cdc
c043c334:	e5941008 	ldr	r1, [r4, #8]
c043c338:	e3a00001 	mov	r0, #1
c043c33c:	e2811018 	add	r1, r1, #24
c043c340:	eb083265 	bl	0xc0648cdc
c043c344:	e5941008 	ldr	r1, [r4, #8]
c043c348:	e3a00003 	mov	r0, #3
c043c34c:	e2811018 	add	r1, r1, #24
c043c350:	eb083261 	bl	0xc0648cdc
c043c354:	e5941008 	ldr	r1, [r4, #8]
c043c358:	e300014a 	movw	r0, #330	@ 0x14a
c043c35c:	e281101c 	add	r1, r1, #28
c043c360:	eb08325d 	bl	0xc0648cdc
c043c364:	e3a02074 	mov	r2, #116	@ 0x74
c043c368:	e3a01001 	mov	r1, #1
c043c36c:	e5940008 	ldr	r0, [r4, #8]
c043c370:	ebffecdd 	bl	0xc04376ec
c043c374:	e3a02016 	mov	r2, #22
c043c378:	e3a01001 	mov	r1, #1
c043c37c:	e5940008 	ldr	r0, [r4, #8]
c043c380:	ebffecd9 	bl	0xc04376ec
c043c384:	e3a02067 	mov	r2, #103	@ 0x67
c043c388:	e3a01001 	mov	r1, #1
c043c38c:	e5940008 	ldr	r0, [r4, #8]
c043c390:	ebffecd5 	bl	0xc04376ec
c043c394:	e3a0206c 	mov	r2, #108	@ 0x6c
c043c398:	e3a01001 	mov	r1, #1
c043c39c:	e5940008 	ldr	r0, [r4, #8]
c043c3a0:	ebffecd1 	bl	0xc04376ec
c043c3a4:	e3a02069 	mov	r2, #105	@ 0x69
c043c3a8:	e3a01001 	mov	r1, #1
c043c3ac:	e5940008 	ldr	r0, [r4, #8]
c043c3b0:	ebffeccd 	bl	0xc04376ec
c043c3b4:	e3a0206a 	mov	r2, #106	@ 0x6a
c043c3b8:	e3a01001 	mov	r1, #1
c043c3bc:	e5940008 	ldr	r0, [r4, #8]
c043c3c0:	ebffecc9 	bl	0xc04376ec
c043c3c4:	e3a02018 	mov	r2, #24
c043c3c8:	e3a01001 	mov	r1, #1
c043c3cc:	e5940008 	ldr	r0, [r4, #8]
c043c3d0:	ebffecc5 	bl	0xc04376ec
c043c3d4:	e3a02012 	mov	r2, #18
c043c3d8:	e3a01001 	mov	r1, #1
c043c3dc:	e5940008 	ldr	r0, [r4, #8]
c043c3e0:	ebffecc1 	bl	0xc04376ec
c043c3e4:	e3a02032 	mov	r2, #50	@ 0x32
c043c3e8:	e3a01001 	mov	r1, #1
c043c3ec:	e5940008 	ldr	r0, [r4, #8]
c043c3f0:	ebffecbd 	bl	0xc04376ec
c043c3f4:	e3a02026 	mov	r2, #38	@ 0x26
c043c3f8:	e3a01001 	mov	r1, #1
c043c3fc:	e5940008 	ldr	r0, [r4, #8]
c043c400:	ebffecb9 	bl	0xc04376ec
c043c404:	e3a02011 	mov	r2, #17
c043c408:	e3a01001 	mov	r1, #1
c043c40c:	e5940008 	ldr	r0, [r4, #8]
c043c410:	ebffecb5 	bl	0xc04376ec
c043c414:	e3a0201f 	mov	r2, #31
c043c418:	e3a01001 	mov	r1, #1
c043c41c:	e5940008 	ldr	r0, [r4, #8]
c043c420:	ebffecb1 	bl	0xc04376ec
c043c424:	e3a0202f 	mov	r2, #47	@ 0x2f
c043c428:	e3a01001 	mov	r1, #1
c043c42c:	e5940008 	ldr	r0, [r4, #8]
c043c430:	ebffecad 	bl	0xc04376ec
c043c434:	e3a0202c 	mov	r2, #44	@ 0x2c
c043c438:	e3a01001 	mov	r1, #1
c043c43c:	e5940008 	ldr	r0, [r4, #8]
c043c440:	ebffeca9 	bl	0xc04376ec
c043c444:	e3a0202e 	mov	r2, #46	@ 0x2e
c043c448:	e3a01001 	mov	r1, #1
c043c44c:	e5940008 	ldr	r0, [r4, #8]
c043c450:	ebffeca5 	bl	0xc04376ec
c043c454:	e5941008 	ldr	r1, [r4, #8]
c043c458:	e3a00074 	mov	r0, #116	@ 0x74
c043c45c:	e281101c 	add	r1, r1, #28
c043c460:	eb08321d 	bl	0xc0648cdc
c043c464:	e5941008 	ldr	r1, [r4, #8]
c043c468:	e3a0006a 	mov	r0, #106	@ 0x6a
c043c46c:	e281101c 	add	r1, r1, #28
c043c470:	eb083219 	bl	0xc0648cdc
c043c474:	e5941008 	ldr	r1, [r4, #8]
c043c478:	e3a00069 	mov	r0, #105	@ 0x69
c043c47c:	e281101c 	add	r1, r1, #28
c043c480:	eb083215 	bl	0xc0648cdc
c043c484:	e5941008 	ldr	r1, [r4, #8]
c043c488:	e3a00067 	mov	r0, #103	@ 0x67
c043c48c:	e281101c 	add	r1, r1, #28
c043c490:	eb083211 	bl	0xc0648cdc
c043c494:	e5941008 	ldr	r1, [r4, #8]
c043c498:	e3a0006c 	mov	r0, #108	@ 0x6c
c043c49c:	e281101c 	add	r1, r1, #28
c043c4a0:	eb08320d 	bl	0xc0648cdc
c043c4a4:	e5941008 	ldr	r1, [r4, #8]
c043c4a8:	e3a00016 	mov	r0, #22
c043c4ac:	e281101c 	add	r1, r1, #28
c043c4b0:	eb083209 	bl	0xc0648cdc
c043c4b4:	e5941008 	ldr	r1, [r4, #8]
c043c4b8:	e3a00018 	mov	r0, #24
c043c4bc:	e281101c 	add	r1, r1, #28
c043c4c0:	eb083205 	bl	0xc0648cdc
c043c4c4:	e5941008 	ldr	r1, [r4, #8]
c043c4c8:	e3a00012 	mov	r0, #18
c043c4cc:	e281101c 	add	r1, r1, #28
c043c4d0:	eb083201 	bl	0xc0648cdc
c043c4d4:	e5941008 	ldr	r1, [r4, #8]
c043c4d8:	e3a00032 	mov	r0, #50	@ 0x32
c043c4dc:	e281101c 	add	r1, r1, #28
c043c4e0:	eb0831fd 	bl	0xc0648cdc
c043c4e4:	e5941008 	ldr	r1, [r4, #8]
c043c4e8:	e3a00011 	mov	r0, #17
c043c4ec:	e281101c 	add	r1, r1, #28
c043c4f0:	eb0831f9 	bl	0xc0648cdc
c043c4f4:	e5941008 	ldr	r1, [r4, #8]
c043c4f8:	e3a00026 	mov	r0, #38	@ 0x26
c043c4fc:	e281101c 	add	r1, r1, #28
c043c500:	eb0831f5 	bl	0xc0648cdc
c043c504:	e5941008 	ldr	r1, [r4, #8]
c043c508:	e3a0001f 	mov	r0, #31
c043c50c:	e281101c 	add	r1, r1, #28
c043c510:	eb0831f1 	bl	0xc0648cdc
c043c514:	e5941008 	ldr	r1, [r4, #8]
c043c518:	e3a0002f 	mov	r0, #47	@ 0x2f
c043c51c:	e281101c 	add	r1, r1, #28
c043c520:	eb0831ed 	bl	0xc0648cdc
c043c524:	e5941008 	ldr	r1, [r4, #8]
c043c528:	e3a0002c 	mov	r0, #44	@ 0x2c
c043c52c:	e281101c 	add	r1, r1, #28
c043c530:	eb0831e9 	bl	0xc0648cdc
c043c534:	e5941008 	ldr	r1, [r4, #8]
c043c538:	e3a0002e 	mov	r0, #46	@ 0x2e
c043c53c:	e281101c 	add	r1, r1, #28
c043c540:	eb0831e5 	bl	0xc0648cdc
c043c544:	e3a02002 	mov	r2, #2
c043c548:	e5d4101e 	ldrb	r1, [r4, #30]
c043c54c:	e5940008 	ldr	r0, [r4, #8]
c043c550:	ebfff433 	bl	0xc0439624
c043c554:	e5941008 	ldr	r1, [r4, #8]
c043c558:	e3a00001 	mov	r0, #1
c043c55c:	e2811014 	add	r1, r1, #20
c043c560:	eb0831dd 	bl	0xc0648cdc
c043c564:	e3a030ff 	mov	r3, #255	@ 0xff
c043c568:	e1a02005 	mov	r2, r5
c043c56c:	e3a01030 	mov	r1, #48	@ 0x30
c043c570:	e5940008 	ldr	r0, [r4, #8]
c043c574:	e58d5004 	str	r5, [sp, #4]
c043c578:	e58d5000 	str	r5, [sp]
c043c57c:	ebffec42 	bl	0xc043768c
c043c580:	e3a030ff 	mov	r3, #255	@ 0xff
c043c584:	e1a02005 	mov	r2, r5
c043c588:	e3a0103a 	mov	r1, #58	@ 0x3a
c043c58c:	e5940008 	ldr	r0, [r4, #8]
c043c590:	e58d5004 	str	r5, [sp, #4]
c043c594:	e58d5000 	str	r5, [sp]
c043c598:	ebffec3b 	bl	0xc043768c
c043c59c:	e5d4301e 	ldrb	r3, [r4, #30]
c043c5a0:	e1a02005 	mov	r2, r5
c043c5a4:	e3a01039 	mov	r1, #57	@ 0x39
c043c5a8:	e5940008 	ldr	r0, [r4, #8]
c043c5ac:	e58d5004 	str	r5, [sp, #4]
c043c5b0:	e58d5000 	str	r5, [sp]
c043c5b4:	ebffec34 	bl	0xc043768c
c043c5b8:	e1d432b0 	ldrh	r3, [r4, #32]
c043c5bc:	e1a02005 	mov	r2, r5
c043c5c0:	e3a01035 	mov	r1, #53	@ 0x35
c043c5c4:	e2433001 	sub	r3, r3, #1
c043c5c8:	e5940008 	ldr	r0, [r4, #8]
c043c5cc:	e58d5004 	str	r5, [sp, #4]
c043c5d0:	e58d5000 	str	r5, [sp]
c043c5d4:	ebffec2c 	bl	0xc043768c
c043c5d8:	e1d432b2 	ldrh	r3, [r4, #34]	@ 0x22
c043c5dc:	e1a02005 	mov	r2, r5
c043c5e0:	e3a01036 	mov	r1, #54	@ 0x36
c043c5e4:	e2433001 	sub	r3, r3, #1
c043c5e8:	e5940008 	ldr	r0, [r4, #8]
c043c5ec:	e58d5004 	str	r5, [sp, #4]
c043c5f0:	e58d5000 	str	r5, [sp]
c043c5f4:	ebffec24 	bl	0xc043768c
c043c5f8:	e5941008 	ldr	r1, [r4, #8]
c043c5fc:	e3a00001 	mov	r0, #1
c043c600:	e2811018 	add	r1, r1, #24
c043c604:	eb0831b4 	bl	0xc0648cdc
c043c608:	e5941008 	ldr	r1, [r4, #8]
c043c60c:	e7960105 	ldr	r0, [r6, r5, lsl #2]
c043c610:	e2855001 	add	r5, r5, #1
c043c614:	e281101c 	add	r1, r1, #28
c043c618:	eb0831af 	bl	0xc0648cdc
c043c61c:	e3550003 	cmp	r5, #3
c043c620:	1afffff8 	bne	0xc043c608
c043c624:	e5940008 	ldr	r0, [r4, #8]
c043c628:	ebffee01 	bl	0xc0437e34
c043c62c:	e2505000 	subs	r5, r0, #0
c043c630:	0a000003 	beq	0xc043c644
c043c634:	e5940008 	ldr	r0, [r4, #8]
c043c638:	ebffe861 	bl	0xc04367c4
c043c63c:	e3a03000 	mov	r3, #0
c043c640:	e5843008 	str	r3, [r4, #8]
c043c644:	e1a00005 	mov	r0, r5
c043c648:	e28dd008 	add	sp, sp, #8
c043c64c:	e8bd8070 	pop	{r4, r5, r6, pc}
c043c650:	c0a2d240 	adcgt	sp, r2, r0, asr #4
c043c654:	e92d4070 	push	{r4, r5, r6, lr}
c043c658:	e5904074 	ldr	r4, [r0, #116]	@ 0x74
c043c65c:	e3540000 	cmp	r4, #0
c043c660:	0a00001e 	beq	0xc043c6e0
c043c664:	eb0010af 	bl	0xc0440928
c043c668:	eb0013dd 	bl	0xc04415e4
c043c66c:	e1a00004 	mov	r0, r4
c043c670:	eb002165 	bl	0xc0444c0c
c043c674:	e1a00004 	mov	r0, r4
c043c678:	eb001f46 	bl	0xc0444398
c043c67c:	e5940030 	ldr	r0, [r4, #48]	@ 0x30
c043c680:	e3500000 	cmp	r0, #0
c043c684:	0a000000 	beq	0xc043c68c
c043c688:	ebf3d1c7 	bl	0xc0130dac
c043c68c:	e2840058 	add	r0, r4, #88	@ 0x58
c043c690:	ebfc5c05 	bl	0xc03536ac
c043c694:	e5940064 	ldr	r0, [r4, #100]	@ 0x64
c043c698:	e3500000 	cmp	r0, #0
c043c69c:	da000001 	ble	0xc043c6a8
c043c6a0:	e1a01004 	mov	r1, r4
c043c6a4:	ebf47b3b 	bl	0xc015b398
c043c6a8:	e594000c 	ldr	r0, [r4, #12]
c043c6ac:	e3500000 	cmp	r0, #0
c043c6b0:	0a000002 	beq	0xc043c6c0
c043c6b4:	ebffed9a 	bl	0xc0437d24
c043c6b8:	e594000c 	ldr	r0, [r4, #12]
c043c6bc:	ebffe840 	bl	0xc04367c4
c043c6c0:	e5940008 	ldr	r0, [r4, #8]
c043c6c4:	e3500000 	cmp	r0, #0
c043c6c8:	0a000002 	beq	0xc043c6d8
c043c6cc:	ebffed94 	bl	0xc0437d24
c043c6d0:	e5940008 	ldr	r0, [r4, #8]
c043c6d4:	ebffe83a 	bl	0xc04367c4
c043c6d8:	e2840070 	add	r0, r4, #112	@ 0x70
c043c6dc:	ebf44af9 	bl	0xc014f2c8
c043c6e0:	e59f5044 	ldr	r5, [pc, #68]	@ 0xc043c72c
c043c6e4:	e5950000 	ldr	r0, [r5]
c043c6e8:	e3500000 	cmp	r0, #0
c043c6ec:	0a000002 	beq	0xc043c6fc
c043c6f0:	ebf63158 	bl	0xc01c8c58
c043c6f4:	e3a03000 	mov	r3, #0
c043c6f8:	e5853000 	str	r3, [r5]
c043c6fc:	e5950004 	ldr	r0, [r5, #4]
c043c700:	e3500000 	cmp	r0, #0
c043c704:	0a000002 	beq	0xc043c714
c043c708:	ebf63152 	bl	0xc01c8c58
c043c70c:	e3a03000 	mov	r3, #0
c043c710:	e5853004 	str	r3, [r5, #4]
c043c714:	e3540000 	cmp	r4, #0
c043c718:	0a000001 	beq	0xc043c724
c043c71c:	e1a00004 	mov	r0, r4
c043c720:	ebf6314c 	bl	0xc01c8c58
c043c724:	e3a00000 	mov	r0, #0
c043c728:	e8bd8070 	pop	{r4, r5, r6, pc}
c043c72c:	c0a5d4c8 	adcgt	sp, r5, r8, asr #9
c043c730:	e92d4010 	push	{r4, lr}
c043c734:	e1a03001 	mov	r3, r1
c043c738:	e3a0202f 	mov	r2, #47	@ 0x2f
c043c73c:	e3a01003 	mov	r1, #3
c043c740:	e1a04000 	mov	r4, r0
c043c744:	ebfff111 	bl	0xc0438b90
c043c748:	e3a02000 	mov	r2, #0
c043c74c:	e1a00004 	mov	r0, r4
c043c750:	e1a01002 	mov	r1, r2
c043c754:	ebfff32d 	bl	0xc0439410
c043c758:	e1a00004 	mov	r0, r4
c043c75c:	e3a02000 	mov	r2, #0
c043c760:	e3a01030 	mov	r1, #48	@ 0x30
c043c764:	ebfffed2 	bl	0xc043c2b4
c043c768:	e1a00004 	mov	r0, r4
c043c76c:	e3a02000 	mov	r2, #0
c043c770:	e3a0103a 	mov	r1, #58	@ 0x3a
c043c774:	e8bd4010 	pop	{r4, lr}
c043c778:	eafffecd 	b	0xc043c2b4
c043c77c:	e92d4070 	push	{r4, r5, r6, lr}
c043c780:	e1a04000 	mov	r4, r0
c043c784:	e3a05000 	mov	r5, #0
c043c788:	e5d4301e 	ldrb	r3, [r4, #30]
c043c78c:	e1550003 	cmp	r5, r3
c043c790:	ba000007 	blt	0xc043c7b4
c043c794:	e5940008 	ldr	r0, [r4, #8]
c043c798:	e3a03000 	mov	r3, #0
c043c79c:	e300214a 	movw	r2, #330	@ 0x14a
c043c7a0:	e3a01001 	mov	r1, #1
c043c7a4:	ebfff0f9 	bl	0xc0438b90
c043c7a8:	e5940008 	ldr	r0, [r4, #8]
c043c7ac:	e8bd4070 	pop	{r4, r5, r6, lr}
c043c7b0:	eafffebb 	b	0xc043c2a4
c043c7b4:	e1a01005 	mov	r1, r5
c043c7b8:	e5940008 	ldr	r0, [r4, #8]
c043c7bc:	ebffffdb 	bl	0xc043c730
c043c7c0:	e2855001 	add	r5, r5, #1
c043c7c4:	eaffffef 	b	0xc043c788
c043c7c8:	e92d4070 	push	{r4, r5, r6, lr}
c043c7cc:	e2515000 	subs	r5, r1, #0
c043c7d0:	e59f4034 	ldr	r4, [pc, #52]	@ 0xc043c80c
c043c7d4:	e5d430a0 	ldrb	r3, [r4, #160]	@ 0xa0
c043c7d8:	0a000006 	beq	0xc043c7f8
c043c7dc:	e3530000 	cmp	r3, #0
c043c7e0:	1a000001 	bne	0xc043c7ec
c043c7e4:	e5900064 	ldr	r0, [r0, #100]	@ 0x64
c043c7e8:	ebf4750d 	bl	0xc0159c24
c043c7ec:	e5c450a0 	strb	r5, [r4, #160]	@ 0xa0
c043c7f0:	e3a00000 	mov	r0, #0
c043c7f4:	e8bd8070 	pop	{r4, r5, r6, pc}
c043c7f8:	e3530000 	cmp	r3, #0
c043c7fc:	0afffffa 	beq	0xc043c7ec
c043c800:	e5900064 	ldr	r0, [r0, #100]	@ 0x64
c043c804:	ebf474e5 	bl	0xc0159ba0
c043c808:	eafffff7 	b	0xc043c7ec
c043c80c:	c0a2d240 	adcgt	sp, r2, r0, asr #4
c043c810:	e92d4070 	push	{r4, r5, r6, lr}
c043c814:	e2526000 	subs	r6, r2, #0
c043c818:	0a000050 	beq	0xc043c960
c043c81c:	e2414009 	sub	r4, r1, #9
c043c820:	e5963004 	ldr	r3, [r6, #4]
c043c824:	e16f4f14 	clz	r4, r4
c043c828:	e1a05000 	mov	r5, r0
c043c82c:	e1a042a4 	lsr	r4, r4, #5
c043c830:	e3530000 	cmp	r3, #0
c043c834:	03a02000 	moveq	r2, #0
c043c838:	12042001 	andne	r2, r4, #1
c043c83c:	e3520000 	cmp	r2, #0
c043c840:	0a000006 	beq	0xc043c860
c043c844:	e5933000 	ldr	r3, [r3]
c043c848:	e3530000 	cmp	r3, #0
c043c84c:	1a000003 	bne	0xc043c860
c043c850:	e2402020 	sub	r2, r0, #32
c043c854:	e5101028 	ldr	r1, [r0, #-40]	@ 0xffffffd8
c043c858:	e3a00002 	mov	r0, #2
c043c85c:	ebf3c414 	bl	0xc012d8b4
c043c860:	e5963004 	ldr	r3, [r6, #4]
c043c864:	e3530000 	cmp	r3, #0
c043c868:	03a04000 	moveq	r4, #0
c043c86c:	12044001 	andne	r4, r4, #1
c043c870:	e3540000 	cmp	r4, #0
c043c874:	0a000039 	beq	0xc043c960
c043c878:	e5933000 	ldr	r3, [r3]
c043c87c:	e3530004 	cmp	r3, #4
c043c880:	1a000036 	bne	0xc043c960
c043c884:	e59f40f4 	ldr	r4, [pc, #244]	@ 0xc043c980
c043c888:	e2450020 	sub	r0, r5, #32
c043c88c:	ebf3ccf9 	bl	0xc012fc78
c043c890:	e3a03000 	mov	r3, #0
c043c894:	e5940008 	ldr	r0, [r4, #8]
c043c898:	e2800070 	add	r0, r0, #112	@ 0x70
c043c89c:	e5c03019 	strb	r3, [r0, #25]
c043c8a0:	eb08967f 	bl	0xc06622a4
c043c8a4:	e5943008 	ldr	r3, [r4, #8]
c043c8a8:	e5d32190 	ldrb	r2, [r3, #400]	@ 0x190
c043c8ac:	e3520000 	cmp	r2, #0
c043c8b0:	0a000002 	beq	0xc043c8c0
c043c8b4:	e5d3308b 	ldrb	r3, [r3, #139]	@ 0x8b
c043c8b8:	e3530000 	cmp	r3, #0
c043c8bc:	0a000000 	beq	0xc043c8c4
c043c8c0:	eb00100a 	bl	0xc04408f0
c043c8c4:	e5940008 	ldr	r0, [r4, #8]
c043c8c8:	e5d03190 	ldrb	r3, [r0, #400]	@ 0x190
c043c8cc:	e3530000 	cmp	r3, #0
c043c8d0:	1a000002 	bne	0xc043c8e0
c043c8d4:	e5d0508b 	ldrb	r5, [r0, #139]	@ 0x8b
c043c8d8:	e3550000 	cmp	r5, #0
c043c8dc:	0a000021 	beq	0xc043c968
c043c8e0:	e3a01001 	mov	r1, #1
c043c8e4:	eb0004fa 	bl	0xc043dcd4
c043c8e8:	e5943008 	ldr	r3, [r4, #8]
c043c8ec:	e3a01001 	mov	r1, #1
c043c8f0:	e5930064 	ldr	r0, [r3, #100]	@ 0x64
c043c8f4:	ebf4735f 	bl	0xc0159678
c043c8f8:	e5943008 	ldr	r3, [r4, #8]
c043c8fc:	e3a02001 	mov	r2, #1
c043c900:	e5c32191 	strb	r2, [r3, #401]	@ 0x191
c043c904:	e3a00014 	mov	r0, #20
c043c908:	ebf4c444 	bl	0xc016da20
c043c90c:	e3a01001 	mov	r1, #1
c043c910:	e5940008 	ldr	r0, [r4, #8]
c043c914:	eb00051d 	bl	0xc043dd90
c043c918:	e3a0000a 	mov	r0, #10
c043c91c:	ebf4c43f 	bl	0xc016da20
c043c920:	e5940008 	ldr	r0, [r4, #8]
c043c924:	ebffff94 	bl	0xc043c77c
c043c928:	e5943008 	ldr	r3, [r4, #8]
c043c92c:	e5d32190 	ldrb	r2, [r3, #400]	@ 0x190
c043c930:	e3520000 	cmp	r2, #0
c043c934:	0a000004 	beq	0xc043c94c
c043c938:	e5d33191 	ldrb	r3, [r3, #401]	@ 0x191
c043c93c:	e3530000 	cmp	r3, #0
c043c940:	0a000001 	beq	0xc043c94c
c043c944:	eb000e4c 	bl	0xc044027c
c043c948:	eb000923 	bl	0xc043eddc
c043c94c:	e5940008 	ldr	r0, [r4, #8]
c043c950:	e3a03001 	mov	r3, #1
c043c954:	e2800070 	add	r0, r0, #112	@ 0x70
c043c958:	e5403004 	strb	r3, [r0, #-4]
c043c95c:	eb0894b9 	bl	0xc0661c48
c043c960:	e3a00000 	mov	r0, #0
c043c964:	e8bd8070 	pop	{r4, r5, r6, pc}
c043c968:	e1a01005 	mov	r1, r5
c043c96c:	eb0004d8 	bl	0xc043dcd4
c043c970:	e1a01005 	mov	r1, r5
c043c974:	e5940008 	ldr	r0, [r4, #8]
c043c978:	ebffff92 	bl	0xc043c7c8
c043c97c:	eaffffe0 	b	0xc043c904
c043c980:	c0a5d4c8 	adcgt	sp, r5, r8, asr #9
c043c984:	e92d4010 	push	{r4, lr}
c043c988:	e1a04000 	mov	r4, r0
c043c98c:	e5903010 	ldr	r3, [r0, #16]
c043c990:	e593000c 	ldr	r0, [r3, #12]
c043c994:	ebfc1d14 	bl	0xc0343dec
c043c998:	e3a01000 	mov	r1, #0
c043c99c:	ebfc1992 	bl	0xc0342fec
c043c9a0:	e3a00001 	mov	r0, #1
c043c9a4:	ebf4c41d 	bl	0xc016da20
c043c9a8:	e5943010 	ldr	r3, [r4, #16]
c043c9ac:	e593000c 	ldr	r0, [r3, #12]
c043c9b0:	ebfc1d0d 	bl	0xc0343dec
c043c9b4:	e3a01001 	mov	r1, #1
c043c9b8:	ebfc198b 	bl	0xc0342fec
c043c9bc:	e3a00064 	mov	r0, #100	@ 0x64
c043c9c0:	ebf4c416 	bl	0xc016da20
c043c9c4:	e3a00000 	mov	r0, #0
c043c9c8:	e8bd8010 	pop	{r4, pc}
c043c9cc:	e92d4ff7 	push	{r0, r1, r2, r4, r5, r6, r7, r8, r9, sl, fp, lr}
c043c9d0:	e3a06000 	mov	r6, #0
c043c9d4:	e5908070 	ldr	r8, [r0, #112]	@ 0x70
c043c9d8:	e59f537c 	ldr	r5, [pc, #892]	@ 0xc043cd5c
c043c9dc:	e1580006 	cmp	r8, r6
c043c9e0:	e5856004 	str	r6, [r5, #4]
c043c9e4:	e5856000 	str	r6, [r5]
c043c9e8:	03e06015 	mvneq	r6, #21
c043c9ec:	0a0000ad 	beq	0xc043cca8
c043c9f0:	e59f9368 	ldr	r9, [pc, #872]	@ 0xc043cd60
c043c9f4:	e1a07000 	mov	r7, r0
c043c9f8:	e3a01d37 	mov	r1, #3520	@ 0xdc0
c043c9fc:	e5990028 	ldr	r0, [r9, #40]	@ 0x28
c043ca00:	ebf633f2 	bl	0xc01c99d0
c043ca04:	e2504000 	subs	r4, r0, #0
c043ca08:	03e0600b 	mvneq	r6, #11
c043ca0c:	0a0000a5 	beq	0xc043cca8
c043ca10:	e284a070 	add	sl, r4, #112	@ 0x70
c043ca14:	e285200c 	add	r2, r5, #12
c043ca18:	e59f1344 	ldr	r1, [pc, #836]	@ 0xc043cd64
c043ca1c:	e284b058 	add	fp, r4, #88	@ 0x58
c043ca20:	e1a0000a 	mov	r0, sl
c043ca24:	ebf4449e 	bl	0xc014dca4
c043ca28:	e3a03001 	mov	r3, #1
c043ca2c:	e5c43089 	strb	r3, [r4, #137]	@ 0x89
c043ca30:	e3a01d37 	mov	r1, #3520	@ 0xdc0
c043ca34:	e5973000 	ldr	r3, [r7]
c043ca38:	e5874074 	str	r4, [r7, #116]	@ 0x74
c043ca3c:	e5848010 	str	r8, [r4, #16]
c043ca40:	e8840088 	stm	r4, {r3, r7}
c043ca44:	e3a03002 	mov	r3, #2
c043ca48:	e5c4606c 	strb	r6, [r4, #108]	@ 0x6c
c043ca4c:	e5c431c3 	strb	r3, [r4, #451]	@ 0x1c3
c043ca50:	e5c462df 	strb	r6, [r4, #735]	@ 0x2df
c043ca54:	e5c462e0 	strb	r6, [r4, #736]	@ 0x2e0
c043ca58:	e5846030 	str	r6, [r4, #48]	@ 0x30
c043ca5c:	e584602c 	str	r6, [r4, #44]	@ 0x2c
c043ca60:	e5990034 	ldr	r0, [r9, #52]	@ 0x34
c043ca64:	e5854008 	str	r4, [r5, #8]
c043ca68:	ebf633d8 	bl	0xc01c99d0
c043ca6c:	e1500006 	cmp	r0, r6
c043ca70:	e5850004 	str	r0, [r5, #4]
c043ca74:	0a0000b6 	beq	0xc043cd54
c043ca78:	e3a01d37 	mov	r1, #3520	@ 0xdc0
c043ca7c:	e5990034 	ldr	r0, [r9, #52]	@ 0x34
c043ca80:	ebf633d2 	bl	0xc01c99d0
c043ca84:	e1500006 	cmp	r0, r6
c043ca88:	e5850000 	str	r0, [r5]
c043ca8c:	0a0000b0 	beq	0xc043cd54
c043ca90:	e1a00004 	mov	r0, r4
c043ca94:	ebffffba 	bl	0xc043c984
c043ca98:	eb000983 	bl	0xc043f0ac
c043ca9c:	e5953008 	ldr	r3, [r5, #8]
c043caa0:	e5c30014 	strb	r0, [r3, #20]
c043caa4:	eb0009d0 	bl	0xc043f1ec
c043caa8:	e5953008 	ldr	r3, [r5, #8]
c043caac:	e5c30029 	strb	r0, [r3, #41]	@ 0x29
c043cab0:	eb0032c0 	bl	0xc04495b8
c043cab4:	e1a00006 	mov	r0, r6
c043cab8:	eb002724 	bl	0xc0446750
c043cabc:	e1a00004 	mov	r0, r4
c043cac0:	ebffffaf 	bl	0xc043c984
c043cac4:	e1a00004 	mov	r0, r4
c043cac8:	eb0003bd 	bl	0xc043d9c4
c043cacc:	e1a00004 	mov	r0, r4
c043cad0:	eb0007f6 	bl	0xc043eab0
c043cad4:	e1a00004 	mov	r0, r4
c043cad8:	ebfffdf9 	bl	0xc043c2c4
c043cadc:	e2506000 	subs	r6, r0, #0
c043cae0:	0a000035 	beq	0xc043cbbc
c043cae4:	e3e06015 	mvn	r6, #21
c043cae8:	e1a00004 	mov	r0, r4
c043caec:	eb002046 	bl	0xc0444c0c
c043caf0:	eb0012bb 	bl	0xc04415e4
c043caf4:	e1a00004 	mov	r0, r4
c043caf8:	eb001e26 	bl	0xc0444398
c043cafc:	e5940030 	ldr	r0, [r4, #48]	@ 0x30
c043cb00:	e3500000 	cmp	r0, #0
c043cb04:	0a000000 	beq	0xc043cb0c
c043cb08:	ebf3d0a7 	bl	0xc0130dac
c043cb0c:	e1a0000b 	mov	r0, fp
c043cb10:	ebfc5ae5 	bl	0xc03536ac
c043cb14:	eb000f83 	bl	0xc0440928
c043cb18:	e5940064 	ldr	r0, [r4, #100]	@ 0x64
c043cb1c:	e3500000 	cmp	r0, #0
c043cb20:	da000001 	ble	0xc043cb2c
c043cb24:	e1a01004 	mov	r1, r4
c043cb28:	ebf47a1a 	bl	0xc015b398
c043cb2c:	e594000c 	ldr	r0, [r4, #12]
c043cb30:	e3500000 	cmp	r0, #0
c043cb34:	0a000004 	beq	0xc043cb4c
c043cb38:	ebffec79 	bl	0xc0437d24
c043cb3c:	e594000c 	ldr	r0, [r4, #12]
c043cb40:	ebffe71f 	bl	0xc04367c4
c043cb44:	e3a03000 	mov	r3, #0
c043cb48:	e584300c 	str	r3, [r4, #12]
c043cb4c:	e5940008 	ldr	r0, [r4, #8]
c043cb50:	e3500000 	cmp	r0, #0
c043cb54:	0a000004 	beq	0xc043cb6c
c043cb58:	ebffec71 	bl	0xc0437d24
c043cb5c:	e5940008 	ldr	r0, [r4, #8]
c043cb60:	ebffe717 	bl	0xc04367c4
c043cb64:	e3a03000 	mov	r3, #0
c043cb68:	e5843008 	str	r3, [r4, #8]
c043cb6c:	e5950000 	ldr	r0, [r5]
c043cb70:	e3500000 	cmp	r0, #0
c043cb74:	0a000002 	beq	0xc043cb84
c043cb78:	ebf63036 	bl	0xc01c8c58
c043cb7c:	e3a03000 	mov	r3, #0
c043cb80:	e5853000 	str	r3, [r5]
c043cb84:	e5950004 	ldr	r0, [r5, #4]
c043cb88:	e3500000 	cmp	r0, #0
c043cb8c:	0a000002 	beq	0xc043cb9c
c043cb90:	ebf63030 	bl	0xc01c8c58
c043cb94:	e3a03000 	mov	r3, #0
c043cb98:	e5853004 	str	r3, [r5, #4]
c043cb9c:	e1a0000a 	mov	r0, sl
c043cba0:	e3a08000 	mov	r8, #0
c043cba4:	ebf449c7 	bl	0xc014f2c8
c043cba8:	e5878074 	str	r8, [r7, #116]	@ 0x74
c043cbac:	e1a00004 	mov	r0, r4
c043cbb0:	ebf63028 	bl	0xc01c8c58
c043cbb4:	e5858008 	str	r8, [r5, #8]
c043cbb8:	ea00003a 	b	0xc043cca8
c043cbbc:	e5d4308a 	ldrb	r3, [r4, #138]	@ 0x8a
c043cbc0:	e3530000 	cmp	r3, #0
c043cbc4:	1a00003a 	bne	0xc043ccb4
c043cbc8:	e5980004 	ldr	r0, [r8, #4]
c043cbcc:	ebfc1c86 	bl	0xc0343dec
c043cbd0:	ebfc1752 	bl	0xc0342920
c043cbd4:	e3500000 	cmp	r0, #0
c043cbd8:	e5840064 	str	r0, [r4, #100]	@ 0x64
c043cbdc:	baffffc0 	blt	0xc043cae4
c043cbe0:	e3023008 	movw	r3, #8200	@ 0x2008
c043cbe4:	e5843068 	str	r3, [r4, #104]	@ 0x68
c043cbe8:	e58d4004 	str	r4, [sp, #4]
c043cbec:	e3a01000 	mov	r1, #0
c043cbf0:	e5942000 	ldr	r2, [r4]
c043cbf4:	e58d2000 	str	r2, [sp]
c043cbf8:	e59f2168 	ldr	r2, [pc, #360]	@ 0xc043cd68
c043cbfc:	ebf47685 	bl	0xc015a618
c043cc00:	e3500000 	cmp	r0, #0
c043cc04:	baffffb6 	blt	0xc043cae4
c043cc08:	e59f315c 	ldr	r3, [pc, #348]	@ 0xc043cd6c
c043cc0c:	e3a02001 	mov	r2, #1
c043cc10:	e59f1158 	ldr	r1, [pc, #344]	@ 0xc043cd70
c043cc14:	e59f0158 	ldr	r0, [pc, #344]	@ 0xc043cd74
c043cc18:	ebf3d353 	bl	0xc013196c
c043cc1c:	e3500000 	cmp	r0, #0
c043cc20:	e5840030 	str	r0, [r4, #48]	@ 0x30
c043cc24:	0a00004a 	beq	0xc043cd54
c043cc28:	e3e0301f 	mvn	r3, #31
c043cc2c:	e5843038 	str	r3, [r4, #56]	@ 0x38
c043cc30:	e284303c 	add	r3, r4, #60	@ 0x3c
c043cc34:	e584303c 	str	r3, [r4, #60]	@ 0x3c
c043cc38:	e5843040 	str	r3, [r4, #64]	@ 0x40
c043cc3c:	e1a0000b 	mov	r0, fp
c043cc40:	e59f3130 	ldr	r3, [pc, #304]	@ 0xc043cd78
c043cc44:	e5843044 	str	r3, [r4, #68]	@ 0x44
c043cc48:	e59f312c 	ldr	r3, [pc, #300]	@ 0xc043cd7c
c043cc4c:	e5843058 	str	r3, [r4, #88]	@ 0x58
c043cc50:	ebfc5a91 	bl	0xc035369c
c043cc54:	e3500000 	cmp	r0, #0
c043cc58:	1affffa1 	bne	0xc043cae4
c043cc5c:	e1a00004 	mov	r0, r4
c043cc60:	eb001dba 	bl	0xc0444350
c043cc64:	e3500000 	cmp	r0, #0
c043cc68:	1affff9d 	bne	0xc043cae4
c043cc6c:	eb00123e 	bl	0xc044156c
c043cc70:	e3500000 	cmp	r0, #0
c043cc74:	1affff9a 	bne	0xc043cae4
c043cc78:	e1a00004 	mov	r0, r4
c043cc7c:	eb001f8c 	bl	0xc0444ab4
c043cc80:	e2506000 	subs	r6, r0, #0
c043cc84:	1affff96 	bne	0xc043cae4
c043cc88:	eb00081d 	bl	0xc043ed04
c043cc8c:	eb00083a 	bl	0xc043ed7c
c043cc90:	e3a03001 	mov	r3, #1
c043cc94:	e5c430fe 	strb	r3, [r4, #254]	@ 0xfe
c043cc98:	e3020710 	movw	r0, #10000	@ 0x2710
c043cc9c:	e59f30dc 	ldr	r3, [pc, #220]	@ 0xc043cd80
c043cca0:	e5843108 	str	r3, [r4, #264]	@ 0x108
c043cca4:	eb000f30 	bl	0xc044096c
c043cca8:	e1a00006 	mov	r0, r6
c043ccac:	e28dd00c 	add	sp, sp, #12
c043ccb0:	e8bd8ff0 	pop	{r4, r5, r6, r7, r8, r9, sl, fp, pc}
c043ccb4:	ebffeacc 	bl	0xc04377ec
c043ccb8:	e3500000 	cmp	r0, #0
c043ccbc:	e584000c 	str	r0, [r4, #12]
c043ccc0:	0affff87 	beq	0xc043cae4
c043ccc4:	e59f30b8 	ldr	r3, [pc, #184]	@ 0xc043cd84
c043ccc8:	e5803000 	str	r3, [r0]
c043cccc:	e1a00006 	mov	r0, r6
c043ccd0:	e5942010 	ldr	r2, [r4, #16]
c043ccd4:	e594300c 	ldr	r3, [r4, #12]
c043ccd8:	e5d22000 	ldrb	r2, [r2]
c043ccdc:	e1c320bc 	strh	r2, [r3, #12]
c043cce0:	e5942004 	ldr	r2, [r4, #4]
c043cce4:	e594300c 	ldr	r3, [r4, #12]
c043cce8:	e5922058 	ldr	r2, [r2, #88]	@ 0x58
c043ccec:	e58321f8 	str	r2, [r3, #504]	@ 0x1f8
c043ccf0:	e594100c 	ldr	r1, [r4, #12]
c043ccf4:	e2811018 	add	r1, r1, #24
c043ccf8:	eb082ff7 	bl	0xc0648cdc
c043ccfc:	e594100c 	ldr	r1, [r4, #12]
c043cd00:	e3a00005 	mov	r0, #5
c043cd04:	e2811018 	add	r1, r1, #24
c043cd08:	eb082ff3 	bl	0xc0648cdc
c043cd0c:	e594100c 	ldr	r1, [r4, #12]
c043cd10:	e3a00001 	mov	r0, #1
c043cd14:	e2811014 	add	r1, r1, #20
c043cd18:	eb082fef 	bl	0xc0648cdc
c043cd1c:	e3a030ff 	mov	r3, #255	@ 0xff
c043cd20:	e1a02006 	mov	r2, r6
c043cd24:	e3a01019 	mov	r1, #25
c043cd28:	e58d6004 	str	r6, [sp, #4]
c043cd2c:	e58d6000 	str	r6, [sp]
c043cd30:	e594000c 	ldr	r0, [r4, #12]
c043cd34:	ebffea54 	bl	0xc043768c
c043cd38:	e594300c 	ldr	r3, [r4, #12]
c043cd3c:	e5834214 	str	r4, [r3, #532]	@ 0x214
c043cd40:	e594000c 	ldr	r0, [r4, #12]
c043cd44:	ebffec3a 	bl	0xc0437e34
c043cd48:	e3500000 	cmp	r0, #0
c043cd4c:	0affff9d 	beq	0xc043cbc8
c043cd50:	eaffff63 	b	0xc043cae4
c043cd54:	e3e0600b 	mvn	r6, #11
c043cd58:	eaffff62 	b	0xc043cae8
c043cd5c:	c0a5d4c8 	adcgt	sp, r5, r8, asr #9
c043cd60:	c08272d0 	ldrdgt	r7, [r2], r0
c043cd64:	c0802765 	addgt	r2, r0, r5, ror #14
c043cd68:	c043cfdc 	ldrdgt	ip, [r3], #-252	@ 0xffffff04
c043cd6c:	c080278e 	addgt	r2, r0, lr, lsl #15
c043cd70:	000e000a 	andeq	r0, lr, sl
c043cd74:	c07f0212 	rsbsgt	r0, pc, r2, lsl r2	@ <UNPREDICTABLE>
c043cd78:	c043cd88 	subgt	ip, r3, r8, lsl #27
c043cd7c:	c043c810 	subgt	ip, r3, r0, lsl r8
c043cd80:	c04406b8 	strhgt	r0, [r4], #-104	@ 0xffffff98
c043cd84:	c0802775 	addgt	r2, r0, r5, ror r7
c043cd88:	e92d4070 	push	{r4, r5, r6, lr}
c043cd8c:	e59f40b0 	ldr	r4, [pc, #176]	@ 0xc043ce44
c043cd90:	e5943008 	ldr	r3, [r4, #8]
c043cd94:	e5d35089 	ldrb	r5, [r3, #137]	@ 0x89
c043cd98:	e3550000 	cmp	r5, #0
c043cd9c:	0a000002 	beq	0xc043cdac
c043cda0:	e3a02000 	mov	r2, #0
c043cda4:	e5c32089 	strb	r2, [r3, #137]	@ 0x89
c043cda8:	e8bd8070 	pop	{r4, r5, r6, pc}
c043cdac:	e3a000c8 	mov	r0, #200	@ 0xc8
c043cdb0:	ebf4c31a 	bl	0xc016da20
c043cdb4:	e5940008 	ldr	r0, [r4, #8]
c043cdb8:	e2800070 	add	r0, r0, #112	@ 0x70
c043cdbc:	eb089538 	bl	0xc06622a4
c043cdc0:	e5940008 	ldr	r0, [r4, #8]
c043cdc4:	ebfffeee 	bl	0xc043c984
c043cdc8:	e1a01005 	mov	r1, r5
c043cdcc:	e5940008 	ldr	r0, [r4, #8]
c043cdd0:	eb0003ee 	bl	0xc043dd90
c043cdd4:	e5940008 	ldr	r0, [r4, #8]
c043cdd8:	e5d03190 	ldrb	r3, [r0, #400]	@ 0x190
c043cddc:	e3530000 	cmp	r3, #0
c043cde0:	0a000014 	beq	0xc043ce38
c043cde4:	e1a01005 	mov	r1, r5
c043cde8:	e5900064 	ldr	r0, [r0, #100]	@ 0x64
c043cdec:	ebf47221 	bl	0xc0159678
c043cdf0:	e5943008 	ldr	r3, [r4, #8]
c043cdf4:	e3a02000 	mov	r2, #0
c043cdf8:	e5c32191 	strb	r2, [r3, #401]	@ 0x191
c043cdfc:	e5c3206c 	strb	r2, [r3, #108]	@ 0x6c
c043ce00:	eb000d1d 	bl	0xc044027c
c043ce04:	eb0007f4 	bl	0xc043eddc
c043ce08:	e5940008 	ldr	r0, [r4, #8]
c043ce0c:	e2800070 	add	r0, r0, #112	@ 0x70
c043ce10:	eb08938c 	bl	0xc0661c48
c043ce14:	e5943008 	ldr	r3, [r4, #8]
c043ce18:	e5d32190 	ldrb	r2, [r3, #400]	@ 0x190
c043ce1c:	e3520000 	cmp	r2, #0
c043ce20:	0a000002 	beq	0xc043ce30
c043ce24:	e5d3308b 	ldrb	r3, [r3, #139]	@ 0x8b
c043ce28:	e3530000 	cmp	r3, #0
c043ce2c:	08bd8070 	popeq	{r4, r5, r6, pc}
c043ce30:	e8bd4070 	pop	{r4, r5, r6, lr}
c043ce34:	ea000eb3 	b	0xc0440908
c043ce38:	e3a01001 	mov	r1, #1
c043ce3c:	ebfffe61 	bl	0xc043c7c8
c043ce40:	eaffffea 	b	0xc043cdf0
c043ce44:	c0a5d4c8 	adcgt	sp, r5, r8, asr #9
c043ce48:	e92d4070 	push	{r4, r5, r6, lr}
c043ce4c:	e1a04000 	mov	r4, r0
c043ce50:	e1a00001 	mov	r0, r1
c043ce54:	eb0003c5 	bl	0xc043dd70
c043ce58:	e2505000 	subs	r5, r0, #0
c043ce5c:	08bd8070 	popeq	{r4, r5, r6, pc}
c043ce60:	e3a03001 	mov	r3, #1
c043ce64:	e1a02005 	mov	r2, r5
c043ce68:	e1a01003 	mov	r1, r3
c043ce6c:	e1a00004 	mov	r0, r4
c043ce70:	ebffef46 	bl	0xc0438b90
c043ce74:	e1a00004 	mov	r0, r4
c043ce78:	ebfffd09 	bl	0xc043c2a4
c043ce7c:	e1a00004 	mov	r0, r4
c043ce80:	e1a02005 	mov	r2, r5
c043ce84:	e3a03000 	mov	r3, #0
c043ce88:	e3a01001 	mov	r1, #1
c043ce8c:	ebffef3f 	bl	0xc0438b90
c043ce90:	e1a00004 	mov	r0, r4
c043ce94:	e8bd4070 	pop	{r4, r5, r6, lr}
c043ce98:	eafffd01 	b	0xc043c2a4
c043ce9c:	e3a03001 	mov	r3, #1
c043cea0:	e3a02074 	mov	r2, #116	@ 0x74
c043cea4:	e92d4010 	push	{r4, lr}
c043cea8:	e1a01003 	mov	r1, r3
c043ceac:	e1a04000 	mov	r4, r0
c043ceb0:	ebffef36 	bl	0xc0438b90
c043ceb4:	e1a00004 	mov	r0, r4
c043ceb8:	ebfffcf9 	bl	0xc043c2a4
c043cebc:	e1a00004 	mov	r0, r4
c043cec0:	e3a03000 	mov	r3, #0
c043cec4:	e3a02074 	mov	r2, #116	@ 0x74
c043cec8:	e3a01001 	mov	r1, #1
c043cecc:	ebffef2f 	bl	0xc0438b90
c043ced0:	e1a00004 	mov	r0, r4
c043ced4:	e8bd4010 	pop	{r4, lr}
c043ced8:	eafffcf1 	b	0xc043c2a4
c043cedc:	e3510003 	cmp	r1, #3
c043cee0:	e92d4010 	push	{r4, lr}
c043cee4:	1a000013 	bne	0xc043cf38
c043cee8:	e59f4088 	ldr	r4, [pc, #136]	@ 0xc043cf78
c043ceec:	e3a02000 	mov	r2, #0
c043cef0:	e3a00028 	mov	r0, #40	@ 0x28
c043cef4:	e5941004 	ldr	r1, [r4, #4]
c043cef8:	eb00090b 	bl	0xc043f32c
c043cefc:	e3a02000 	mov	r2, #0
c043cf00:	e5941004 	ldr	r1, [r4, #4]
c043cf04:	e3a00010 	mov	r0, #16
c043cf08:	eb000907 	bl	0xc043f32c
c043cf0c:	e3a00014 	mov	r0, #20
c043cf10:	ebf4c2c2 	bl	0xc016da20
c043cf14:	e3a01001 	mov	r1, #1
c043cf18:	e5940008 	ldr	r0, [r4, #8]
c043cf1c:	eb00039b 	bl	0xc043dd90
c043cf20:	e3a00014 	mov	r0, #20
c043cf24:	ebf4c2bd 	bl	0xc016da20
c043cf28:	e5940008 	ldr	r0, [r4, #8]
c043cf2c:	e3a01001 	mov	r1, #1
c043cf30:	e8bd4010 	pop	{r4, lr}
c043cf34:	ea000979 	b	0xc043f520
c043cf38:	e3510005 	cmp	r1, #5
c043cf3c:	18bd8010 	popne	{r4, pc}
c043cf40:	e59f4030 	ldr	r4, [pc, #48]	@ 0xc043cf78
c043cf44:	e3a02000 	mov	r2, #0
c043cf48:	e3a00029 	mov	r0, #41	@ 0x29
c043cf4c:	e5941004 	ldr	r1, [r4, #4]
c043cf50:	eb0008f5 	bl	0xc043f32c
c043cf54:	e3a00078 	mov	r0, #120	@ 0x78
c043cf58:	ebf4c2b0 	bl	0xc016da20
c043cf5c:	e3a01000 	mov	r1, #0
c043cf60:	e5940008 	ldr	r0, [r4, #8]
c043cf64:	eb000389 	bl	0xc043dd90
c043cf68:	e5943008 	ldr	r3, [r4, #8]
c043cf6c:	e3a02000 	mov	r2, #0
c043cf70:	e5c3208c 	strb	r2, [r3, #140]	@ 0x8c
c043cf74:	e8bd8010 	pop	{r4, pc}
c043cf78:	c0a5d4c8 	adcgt	sp, r5, r8, asr #9
c043cf7c:	e3510003 	cmp	r1, #3
c043cf80:	e1a02001 	mov	r2, r1
c043cf84:	e92d4010 	push	{r4, lr}
c043cf88:	e1a04000 	mov	r4, r0
c043cf8c:	1a000004 	bne	0xc043cfa4
c043cf90:	e59f3040 	ldr	r3, [pc, #64]	@ 0xc043cfd8
c043cf94:	e3a01001 	mov	r1, #1
c043cf98:	e5933008 	ldr	r3, [r3, #8]
c043cf9c:	e5c3108e 	strb	r1, [r3, #142]	@ 0x8e
c043cfa0:	ea000001 	b	0xc043cfac
c043cfa4:	e3510004 	cmp	r1, #4
c043cfa8:	1a000004 	bne	0xc043cfc0
c043cfac:	e3a01019 	mov	r1, #25
c043cfb0:	ebfffcbf 	bl	0xc043c2b4
c043cfb4:	e1a00004 	mov	r0, r4
c043cfb8:	e8bd4010 	pop	{r4, lr}
c043cfbc:	eafffcb8 	b	0xc043c2a4
c043cfc0:	e3510005 	cmp	r1, #5
c043cfc4:	18bd8010 	popne	{r4, pc}
c043cfc8:	e59f3008 	ldr	r3, [pc, #8]	@ 0xc043cfd8
c043cfcc:	e3a01000 	mov	r1, #0
c043cfd0:	e5933008 	ldr	r3, [r3, #8]
c043cfd4:	eafffff0 	b	0xc043cf9c
c043cfd8:	c0a5d4c8 	adcgt	sp, r5, r8, asr #9
c043cfdc:	e59f3434 	ldr	r3, [pc, #1076]	@ 0xc043d418
c043cfe0:	e92d4ff0 	push	{r4, r5, r6, r7, r8, r9, sl, fp, lr}
c043cfe4:	e24dd014 	sub	sp, sp, #20
c043cfe8:	e5932000 	ldr	r2, [r3]
c043cfec:	e1a04001 	mov	r4, r1
c043cff0:	e5d1501e 	ldrb	r5, [r1, #30]
c043cff4:	e58d3004 	str	r3, [sp, #4]
c043cff8:	e58d200c 	str	r2, [sp, #12]
c043cffc:	e3a0205a 	mov	r2, #90	@ 0x5a
c043d000:	e1cd20ba 	strh	r2, [sp, #10]
c043d004:	e5d12298 	ldrb	r2, [r1, #664]	@ 0x298
c043d008:	e3520014 	cmp	r2, #20
c043d00c:	1a00000c 	bne	0xc043d044
c043d010:	e3a02001 	mov	r2, #1
c043d014:	e3a03000 	mov	r3, #0
c043d018:	e5c122a8 	strb	r2, [r1, #680]	@ 0x2a8
c043d01c:	e2840fa7 	add	r0, r4, #668	@ 0x29c
c043d020:	e1a01002 	mov	r1, r2
c043d024:	ebf42faf 	bl	0xc0148ee8
c043d028:	e59d3004 	ldr	r3, [sp, #4]
c043d02c:	e3a00001 	mov	r0, #1
c043d030:	e59d200c 	ldr	r2, [sp, #12]
c043d034:	e5933000 	ldr	r3, [r3]
c043d038:	e1520003 	cmp	r2, r3
c043d03c:	0a0000f3 	beq	0xc043d410
c043d040:	ebf37059 	bl	0xc01191ac
c043d044:	e2849070 	add	r9, r4, #112	@ 0x70
c043d048:	e5d16025 	ldrb	r6, [r1, #37]	@ 0x25
c043d04c:	eb000e11 	bl	0xc0440898
c043d050:	e1a00009 	mov	r0, r9
c043d054:	eb089492 	bl	0xc06622a4
c043d058:	e5d43191 	ldrb	r3, [r4, #401]	@ 0x191
c043d05c:	e3530000 	cmp	r3, #0
c043d060:	0a000017 	beq	0xc043d0c4
c043d064:	e5d4308b 	ldrb	r3, [r4, #139]	@ 0x8b
c043d068:	e3530000 	cmp	r3, #0
c043d06c:	1a000014 	bne	0xc043d0c4
c043d070:	e1a00004 	mov	r0, r4
c043d074:	eb00039b 	bl	0xc043dee8
c043d078:	e3500000 	cmp	r0, #0
c043d07c:	ba000004 	blt	0xc043d094
c043d080:	e5d41088 	ldrb	r1, [r4, #136]	@ 0x88
c043d084:	e3510000 	cmp	r1, #0
c043d088:	0a000001 	beq	0xc043d094
c043d08c:	e5940008 	ldr	r0, [r4, #8]
c043d090:	ebffff6c 	bl	0xc043ce48
c043d094:	e5d43298 	ldrb	r3, [r4, #664]	@ 0x298
c043d098:	e3530015 	cmp	r3, #21
c043d09c:	1a000005 	bne	0xc043d0b8
c043d0a0:	e3a02001 	mov	r2, #1
c043d0a4:	e3a03000 	mov	r3, #0
c043d0a8:	e5c422a8 	strb	r2, [r4, #680]	@ 0x2a8
c043d0ac:	e1a01002 	mov	r1, r2
c043d0b0:	e2840fa7 	add	r0, r4, #668	@ 0x29c
c043d0b4:	ebf42f8b 	bl	0xc0148ee8
c043d0b8:	e1a00009 	mov	r0, r9
c043d0bc:	eb0892e1 	bl	0xc0661c48
c043d0c0:	eaffffd8 	b	0xc043d028
c043d0c4:	e0655185 	rsb	r5, r5, r5, lsl #3
c043d0c8:	e5943010 	ldr	r3, [r4, #16]
c043d0cc:	e2855005 	add	r5, r5, #5
c043d0d0:	e30081c6 	movw	r8, #454	@ 0x1c6
c043d0d4:	e0847008 	add	r7, r4, r8
c043d0d8:	e3a00010 	mov	r0, #16
c043d0dc:	e6ef5075 	uxtb	r5, r5
c043d0e0:	e593a018 	ldr	sl, [r3, #24]
c043d0e4:	e1a01007 	mov	r1, r7
c043d0e8:	e5933014 	ldr	r3, [r3, #20]
c043d0ec:	e1a02005 	mov	r2, r5
c043d0f0:	e12fff3a 	blx	sl
c043d0f4:	e3500000 	cmp	r0, #0
c043d0f8:	baffffe5 	blt	0xc043d094
c043d0fc:	e19430d8 	ldrsb	r3, [r4, r8]
c043d100:	e3530000 	cmp	r3, #0
c043d104:	aa000003 	bge	0xc043d118
c043d108:	e1a00004 	mov	r0, r4
c043d10c:	ebfffd9a 	bl	0xc043c77c
c043d110:	e1a00004 	mov	r0, r4
c043d114:	ebfffe1a 	bl	0xc043c984
c043d118:	e5d432e0 	ldrb	r3, [r4, #736]	@ 0x2e0
c043d11c:	e3530000 	cmp	r3, #0
c043d120:	0a000002 	beq	0xc043d130
c043d124:	e2841fba 	add	r1, r4, #744	@ 0x2e8
c043d128:	e1a00004 	mov	r0, r4
c043d12c:	eb000c81 	bl	0xc0440338
c043d130:	e5d4308a 	ldrb	r3, [r4, #138]	@ 0x8a
c043d134:	e3530000 	cmp	r3, #0
c043d138:	1a000056 	bne	0xc043d298
c043d13c:	e5d4308f 	ldrb	r3, [r4, #143]	@ 0x8f
c043d140:	e3530000 	cmp	r3, #0
c043d144:	0a00002a 	beq	0xc043d1f4
c043d148:	e3a02004 	mov	r2, #4
c043d14c:	e1a01007 	mov	r1, r7
c043d150:	e28d000a 	add	r0, sp, #10
c043d154:	eb000350 	bl	0xc043de9c
c043d158:	e5d431c6 	ldrb	r3, [r4, #454]	@ 0x1c6
c043d15c:	e3130008 	tst	r3, #8
c043d160:	0a000005 	beq	0xc043d17c
c043d164:	e5d4201e 	ldrb	r2, [r4, #30]
c043d168:	e2841f72 	add	r1, r4, #456	@ 0x1c8
c043d16c:	e2811002 	add	r1, r1, #2
c043d170:	e28d000a 	add	r0, sp, #10
c043d174:	e0622182 	rsb	r2, r2, r2, lsl #3
c043d178:	eb000347 	bl	0xc043de9c
c043d17c:	e5d4308a 	ldrb	r3, [r4, #138]	@ 0x8a
c043d180:	e0845005 	add	r5, r4, r5
c043d184:	e3530000 	cmp	r3, #0
c043d188:	e5d521c5 	ldrb	r2, [r5, #453]	@ 0x1c5
c043d18c:	0a000014 	beq	0xc043d1e4
c043d190:	e5d4308b 	ldrb	r3, [r4, #139]	@ 0x8b
c043d194:	e3530000 	cmp	r3, #0
c043d198:	0a000011 	beq	0xc043d1e4
c043d19c:	e5d431c6 	ldrb	r3, [r4, #454]	@ 0x1c6
c043d1a0:	e3130004 	tst	r3, #4
c043d1a4:	0a00000e 	beq	0xc043d1e4
c043d1a8:	e5d43216 	ldrb	r3, [r4, #534]	@ 0x216
c043d1ac:	e2841f85 	add	r1, r4, #532	@ 0x214
c043d1b0:	e5d42025 	ldrb	r2, [r4, #37]	@ 0x25
c043d1b4:	e2811002 	add	r1, r1, #2
c043d1b8:	e3130001 	tst	r3, #1
c043d1bc:	e28d000a 	add	r0, sp, #10
c043d1c0:	15d43024 	ldrbne	r3, [r4, #36]	@ 0x24
c043d1c4:	10822003 	addne	r2, r2, r3
c043d1c8:	e1a05082 	lsl	r5, r2, #1
c043d1cc:	e2855001 	add	r5, r5, #1
c043d1d0:	e6ff5075 	uxth	r5, r5
c043d1d4:	e1a02005 	mov	r2, r5
c043d1d8:	e0845005 	add	r5, r4, r5
c043d1dc:	eb00032e 	bl	0xc043de9c
c043d1e0:	e5d52216 	ldrb	r2, [r5, #534]	@ 0x216
c043d1e4:	e5dd300a 	ldrb	r3, [sp, #10]
c043d1e8:	e1520003 	cmp	r2, r3
c043d1ec:	e1cd30ba 	strh	r3, [sp, #10]
c043d1f0:	1affffa7 	bne	0xc043d094
c043d1f4:	e5d4308a 	ldrb	r3, [r4, #138]	@ 0x8a
c043d1f8:	e3530000 	cmp	r3, #0
c043d1fc:	1a000037 	bne	0xc043d2e0
c043d200:	e5d4506c 	ldrb	r5, [r4, #108]	@ 0x6c
c043d204:	e3550000 	cmp	r5, #0
c043d208:	02846e1d 	addeq	r6, r4, #464	@ 0x1d0
c043d20c:	02866001 	addeq	r6, r6, #1
c043d210:	01a08005 	moveq	r8, r5
c043d214:	1affff9e 	bne	0xc043d094
c043d218:	e5d4301e 	ldrb	r3, [r4, #30]
c043d21c:	e1580003 	cmp	r8, r3
c043d220:	ba000043 	blt	0xc043d334
c043d224:	e2953000 	adds	r3, r5, #0
c043d228:	e300214a 	movw	r2, #330	@ 0x14a
c043d22c:	e3a01001 	mov	r1, #1
c043d230:	e5940008 	ldr	r0, [r4, #8]
c043d234:	13a03001 	movne	r3, #1
c043d238:	e59f81dc 	ldr	r8, [pc, #476]	@ 0xc043d41c
c043d23c:	ebffee53 	bl	0xc0438b90
c043d240:	e5940008 	ldr	r0, [r4, #8]
c043d244:	ebfffc16 	bl	0xc043c2a4
c043d248:	e59fa1d0 	ldr	sl, [pc, #464]	@ 0xc043d420
c043d24c:	e5946008 	ldr	r6, [r4, #8]
c043d250:	e3a05000 	mov	r5, #0
c043d254:	e5d471c9 	ldrb	r7, [r4, #457]	@ 0x1c9
c043d258:	e1a0b008 	mov	fp, r8
c043d25c:	e3a01001 	mov	r1, #1
c043d260:	e5d8200c 	ldrb	r2, [r8, #12]
c043d264:	e1a03511 	lsl	r3, r1, r5
c043d268:	e6ef3073 	uxtb	r3, r3
c043d26c:	e1130002 	tst	r3, r2
c043d270:	e0033007 	and	r3, r3, r7
c043d274:	1a00005d 	bne	0xc043d3f0
c043d278:	e3530000 	cmp	r3, #0
c043d27c:	11a03001 	movne	r3, r1
c043d280:	1a00005c 	bne	0xc043d3f8
c043d284:	e2855001 	add	r5, r5, #1
c043d288:	e3550003 	cmp	r5, #3
c043d28c:	1afffff2 	bne	0xc043d25c
c043d290:	e5cb700c 	strb	r7, [fp, #12]
c043d294:	eaffff7e 	b	0xc043d094
c043d298:	e5d4308b 	ldrb	r3, [r4, #139]	@ 0x8b
c043d29c:	e3530000 	cmp	r3, #0
c043d2a0:	0affffa5 	beq	0xc043d13c
c043d2a4:	e5d431c6 	ldrb	r3, [r4, #454]	@ 0x1c6
c043d2a8:	e3130004 	tst	r3, #4
c043d2ac:	0affffa2 	beq	0xc043d13c
c043d2b0:	e5943010 	ldr	r3, [r4, #16]
c043d2b4:	e1a02106 	lsl	r2, r6, #2
c043d2b8:	e2841f85 	add	r1, r4, #532	@ 0x214
c043d2bc:	e2822001 	add	r2, r2, #1
c043d2c0:	e2811002 	add	r1, r1, #2
c043d2c4:	e3a0005a 	mov	r0, #90	@ 0x5a
c043d2c8:	e5936018 	ldr	r6, [r3, #24]
c043d2cc:	e5933014 	ldr	r3, [r3, #20]
c043d2d0:	e12fff36 	blx	r6
c043d2d4:	e3500000 	cmp	r0, #0
c043d2d8:	aaffff97 	bge	0xc043d13c
c043d2dc:	eaffff6c 	b	0xc043d094
c043d2e0:	e5d4308b 	ldrb	r3, [r4, #139]	@ 0x8b
c043d2e4:	e3530000 	cmp	r3, #0
c043d2e8:	0affffc4 	beq	0xc043d200
c043d2ec:	e5d451c6 	ldrb	r5, [r4, #454]	@ 0x1c6
c043d2f0:	e7e25255 	ubfx	r5, r5, #4, #3
c043d2f4:	e3550000 	cmp	r5, #0
c043d2f8:	0affffc0 	beq	0xc043d200
c043d2fc:	e5d4308c 	ldrb	r3, [r4, #140]	@ 0x8c
c043d300:	e1530005 	cmp	r3, r5
c043d304:	0affffbd 	beq	0xc043d200
c043d308:	e5d4308d 	ldrb	r3, [r4, #141]	@ 0x8d
c043d30c:	e5c4508c 	strb	r5, [r4, #140]	@ 0x8c
c043d310:	e3530000 	cmp	r3, #0
c043d314:	0a000002 	beq	0xc043d324
c043d318:	e1a01005 	mov	r1, r5
c043d31c:	e5940008 	ldr	r0, [r4, #8]
c043d320:	ebfffeed 	bl	0xc043cedc
c043d324:	e1a01005 	mov	r1, r5
c043d328:	e594000c 	ldr	r0, [r4, #12]
c043d32c:	ebffff12 	bl	0xc043cf7c
c043d330:	eaffffb2 	b	0xc043d200
c043d334:	e556b007 	ldrb	fp, [r6, #-7]
c043d338:	e31b0080 	tst	fp, #128	@ 0x80
c043d33c:	0a000027 	beq	0xc043d3e0
c043d340:	e556a005 	ldrb	sl, [r6, #-5]
c043d344:	e1a0b40b 	lsl	fp, fp, #8
c043d348:	e5563006 	ldrb	r3, [r6, #-6]
c043d34c:	e20bbc3f 	and	fp, fp, #16128	@ 0x3f00
c043d350:	e5947008 	ldr	r7, [r4, #8]
c043d354:	e3a0202f 	mov	r2, #47	@ 0x2f
c043d358:	e1a0a40a 	lsl	sl, sl, #8
c043d35c:	e183b00b 	orr	fp, r3, fp
c043d360:	e20a3c3f 	and	r3, sl, #16128	@ 0x3f00
c043d364:	e556a004 	ldrb	sl, [r6, #-4]
c043d368:	e3a01003 	mov	r1, #3
c043d36c:	e1a00007 	mov	r0, r7
c043d370:	e18aa003 	orr	sl, sl, r3
c043d374:	e1a03008 	mov	r3, r8
c043d378:	ebffee04 	bl	0xc0438b90
c043d37c:	e3a02001 	mov	r2, #1
c043d380:	e3a01000 	mov	r1, #0
c043d384:	e1a00007 	mov	r0, r7
c043d388:	ebfff020 	bl	0xc0439410
c043d38c:	e1a0200b 	mov	r2, fp
c043d390:	e3a01035 	mov	r1, #53	@ 0x35
c043d394:	e1a00007 	mov	r0, r7
c043d398:	ebfffbc5 	bl	0xc043c2b4
c043d39c:	e1a0200a 	mov	r2, sl
c043d3a0:	e3a01036 	mov	r1, #54	@ 0x36
c043d3a4:	e1a00007 	mov	r0, r7
c043d3a8:	ebfffbc1 	bl	0xc043c2b4
c043d3ac:	e2855001 	add	r5, r5, #1
c043d3b0:	e3a02001 	mov	r2, #1
c043d3b4:	e3a01030 	mov	r1, #48	@ 0x30
c043d3b8:	e1a00007 	mov	r0, r7
c043d3bc:	e6ef5075 	uxtb	r5, r5
c043d3c0:	ebfffbbb 	bl	0xc043c2b4
c043d3c4:	e3a020ff 	mov	r2, #255	@ 0xff
c043d3c8:	e3a0103a 	mov	r1, #58	@ 0x3a
c043d3cc:	e1a00007 	mov	r0, r7
c043d3d0:	ebfffbb7 	bl	0xc043c2b4
c043d3d4:	e2888001 	add	r8, r8, #1
c043d3d8:	e2866007 	add	r6, r6, #7
c043d3dc:	eaffff8d 	b	0xc043d218
c043d3e0:	e1a01008 	mov	r1, r8
c043d3e4:	e5940008 	ldr	r0, [r4, #8]
c043d3e8:	ebfffcd0 	bl	0xc043c730
c043d3ec:	eafffff8 	b	0xc043d3d4
c043d3f0:	e21330ff 	ands	r3, r3, #255	@ 0xff
c043d3f4:	1affffa2 	bne	0xc043d284
c043d3f8:	e1a00006 	mov	r0, r6
c043d3fc:	e79a2105 	ldr	r2, [sl, r5, lsl #2]
c043d400:	ebffede2 	bl	0xc0438b90
c043d404:	e1a00006 	mov	r0, r6
c043d408:	ebfffba5 	bl	0xc043c2a4
c043d40c:	eaffff9c 	b	0xc043d284
c043d410:	e28dd014 	add	sp, sp, #20
c043d414:	e8bd8ff0 	pop	{r4, r5, r6, r7, r8, r9, sl, fp, pc}
c043d418:	c0a04e08 	adcgt	r4, r0, r8, lsl #28
c043d41c:	c0a5d4c8 	adcgt	sp, r5, r8, asr #9
c043d420:	c0a2d240 	adcgt	sp, r2, r0, asr #4
c043d424:	e92d4010 	push	{r4, lr}
c043d428:	e59f4034 	ldr	r4, [pc, #52]	@ 0xc043d464
c043d42c:	e5940008 	ldr	r0, [r4, #8]
c043d430:	e5903008 	ldr	r3, [r0, #8]
c043d434:	e3530000 	cmp	r3, #0
c043d438:	08bd8010 	popeq	{r4, pc}
c043d43c:	eb00059b 	bl	0xc043eab0
c043d440:	e5943008 	ldr	r3, [r4, #8]
c043d444:	e5930008 	ldr	r0, [r3, #8]
c043d448:	ebffea35 	bl	0xc0437d24
c043d44c:	e5943008 	ldr	r3, [r4, #8]
c043d450:	e5930008 	ldr	r0, [r3, #8]
c043d454:	ebffe4da 	bl	0xc04367c4
c043d458:	e5940008 	ldr	r0, [r4, #8]
c043d45c:	e8bd4010 	pop	{r4, lr}
c043d460:	eafffb97 	b	0xc043c2c4
c043d464:	c0a5d4c8 	adcgt	sp, r5, r8, asr #9
c043d468:	e12fff1e 	bx	lr
c043d46c:	e59f1004 	ldr	r1, [pc, #4]	@ 0xc043d478
c043d470:	e3a00000 	mov	r0, #0
c043d474:	ea004945 	b	0xc044f990
c043d478:	c0a2d2e8 	adcgt	sp, r2, r8, ror #5
c043d47c:	e59f303c 	ldr	r3, [pc, #60]	@ 0xc043d4c0
c043d480:	e92d4010 	push	{r4, lr}
c043d484:	e5934118 	ldr	r4, [r3, #280]	@ 0x118
c043d488:	e3540000 	cmp	r4, #0
c043d48c:	0a000009 	beq	0xc043d4b8
c043d490:	e5940004 	ldr	r0, [r4, #4]
c043d494:	e3500e1a 	cmp	r0, #416	@ 0x1a0
c043d498:	2a000000 	bcs	0xc043d4a0
c043d49c:	ebfc2729 	bl	0xc0347148
c043d4a0:	e594000c 	ldr	r0, [r4, #12]
c043d4a4:	e3500e1a 	cmp	r0, #416	@ 0x1a0
c043d4a8:	2a000000 	bcs	0xc043d4b0
c043d4ac:	ebfc2725 	bl	0xc0347148
c043d4b0:	e59f000c 	ldr	r0, [pc, #12]	@ 0xc043d4c4
c043d4b4:	ebfdb888 	bl	0xc03ab6dc
c043d4b8:	e3a00000 	mov	r0, #0
c043d4bc:	e8bd8010 	pop	{r4, pc}
c043d4c0:	c0a2d2e8 	adcgt	sp, r2, r8, ror #5
c043d4c4:	c0a2d390 	umlalgt	sp, r2, r0, r3
c043d4c8:	e92d4030 	push	{r4, r5, lr}
c043d4cc:	e24dd014 	sub	sp, sp, #20
c043d4d0:	e59f5070 	ldr	r5, [pc, #112]	@ 0xc043d548
c043d4d4:	e1a04001 	mov	r4, r1
c043d4d8:	e592c000 	ldr	ip, [r2]
c043d4dc:	e2812001 	add	r2, r1, #1
c043d4e0:	e58d0008 	str	r0, [sp, #8]
c043d4e4:	e1a0100d 	mov	r1, sp
c043d4e8:	e5953000 	ldr	r3, [r5]
c043d4ec:	e1cd20b4 	strh	r2, [sp, #4]
c043d4f0:	e3a02001 	mov	r2, #1
c043d4f4:	e58d300c 	str	r3, [sp, #12]
c043d4f8:	e3a03028 	mov	r3, #40	@ 0x28
c043d4fc:	e1cd30b0 	strh	r3, [sp]
c043d500:	e3a03000 	mov	r3, #0
c043d504:	e5c03000 	strb	r3, [r0]
c043d508:	e59c0018 	ldr	r0, [ip, #24]
c043d50c:	e1cd30b2 	strh	r3, [sp, #2]
c043d510:	eb004b94 	bl	0xc0450368
c043d514:	e3500001 	cmp	r0, #1
c043d518:	01a00004 	moveq	r0, r4
c043d51c:	0a000002 	beq	0xc043d52c
c043d520:	e3a00014 	mov	r0, #20
c043d524:	ebf4c13d 	bl	0xc016da20
c043d528:	e3e00004 	mvn	r0, #4
c043d52c:	e59d200c 	ldr	r2, [sp, #12]
c043d530:	e5953000 	ldr	r3, [r5]
c043d534:	e1520003 	cmp	r2, r3
c043d538:	0a000000 	beq	0xc043d540
c043d53c:	ebf36f1a 	bl	0xc01191ac
c043d540:	e28dd014 	add	sp, sp, #20
c043d544:	e8bd8030 	pop	{r4, r5, pc}
c043d548:	c0a04e08 	adcgt	r4, r0, r8, lsl #28
c043d54c:	e92d4030 	push	{r4, r5, lr}
c043d550:	e24dd024 	sub	sp, sp, #36	@ 0x24
c043d554:	e59f4090 	ldr	r4, [pc, #144]	@ 0xc043d5ec
c043d558:	e3a05000 	mov	r5, #0
c043d55c:	e1cd50b6 	strh	r5, [sp, #6]
c043d560:	e2815001 	add	r5, r1, #1
c043d564:	e2411001 	sub	r1, r1, #1
c043d568:	e58d000c 	str	r0, [sp, #12]
c043d56c:	e594c000 	ldr	ip, [r4]
c043d570:	e1e01001 	mvn	r1, r1
c043d574:	e201105f 	and	r1, r1, #95	@ 0x5f
c043d578:	e58d2018 	str	r2, [sp, #24]
c043d57c:	e3a02002 	mov	r2, #2
c043d580:	e58dc01c 	str	ip, [sp, #28]
c043d584:	e1e01001 	mvn	r1, r1
c043d588:	e59dc030 	ldr	ip, [sp, #48]	@ 0x30
c043d58c:	e1cd50b8 	strh	r5, [sp, #8]
c043d590:	e1cd31b4 	strh	r3, [sp, #20]
c043d594:	e59ce000 	ldr	lr, [ip]
c043d598:	e3a0c028 	mov	ip, #40	@ 0x28
c043d59c:	e5c01000 	strb	r1, [r0]
c043d5a0:	e28d1004 	add	r1, sp, #4
c043d5a4:	e1cdc0b4 	strh	ip, [sp, #4]
c043d5a8:	e59e0018 	ldr	r0, [lr, #24]
c043d5ac:	e1cdc1b0 	strh	ip, [sp, #16]
c043d5b0:	e3a0c001 	mov	ip, #1
c043d5b4:	e1cdc1b2 	strh	ip, [sp, #18]
c043d5b8:	eb004b6a 	bl	0xc0450368
c043d5bc:	e3500002 	cmp	r0, #2
c043d5c0:	0a000001 	beq	0xc043d5cc
c043d5c4:	e3a00014 	mov	r0, #20
c043d5c8:	ebf4c114 	bl	0xc016da20
c043d5cc:	e59d201c 	ldr	r2, [sp, #28]
c043d5d0:	e3a00000 	mov	r0, #0
c043d5d4:	e5943000 	ldr	r3, [r4]
c043d5d8:	e1520003 	cmp	r2, r3
c043d5dc:	0a000000 	beq	0xc043d5e4
c043d5e0:	ebf36ef1 	bl	0xc01191ac
c043d5e4:	e28dd024 	add	sp, sp, #36	@ 0x24
c043d5e8:	e8bd8030 	pop	{r4, r5, pc}
c043d5ec:	c0a04e08 	adcgt	r4, r0, r8, lsl #28
c043d5f0:	e92d4030 	push	{r4, r5, lr}
c043d5f4:	e24dd014 	sub	sp, sp, #20
c043d5f8:	e59f5068 	ldr	r5, [pc, #104]	@ 0xc043d668
c043d5fc:	e1a04001 	mov	r4, r1
c043d600:	e5953000 	ldr	r3, [r5]
c043d604:	e58d300c 	str	r3, [sp, #12]
c043d608:	e5923000 	ldr	r3, [r2]
c043d60c:	e1d320b2 	ldrh	r2, [r3, #2]
c043d610:	e1cd10b4 	strh	r1, [sp, #4]
c043d614:	e1a0100d 	mov	r1, sp
c043d618:	e58d0008 	str	r0, [sp, #8]
c043d61c:	e1cd20b0 	strh	r2, [sp]
c043d620:	e3a02000 	mov	r2, #0
c043d624:	e5930018 	ldr	r0, [r3, #24]
c043d628:	e1cd20b2 	strh	r2, [sp, #2]
c043d62c:	e3a02001 	mov	r2, #1
c043d630:	eb004b4c 	bl	0xc0450368
c043d634:	e3500001 	cmp	r0, #1
c043d638:	01a00004 	moveq	r0, r4
c043d63c:	0a000002 	beq	0xc043d64c
c043d640:	e3a00014 	mov	r0, #20
c043d644:	ebf4c0f5 	bl	0xc016da20
c043d648:	e3e00004 	mvn	r0, #4
c043d64c:	e59d200c 	ldr	r2, [sp, #12]
c043d650:	e5953000 	ldr	r3, [r5]
c043d654:	e1520003 	cmp	r2, r3
c043d658:	0a000000 	beq	0xc043d660
c043d65c:	ebf36ed2 	bl	0xc01191ac
c043d660:	e28dd014 	add	sp, sp, #20
c043d664:	e8bd8030 	pop	{r4, r5, pc}
c043d668:	c0a04e08 	adcgt	r4, r0, r8, lsl #28
c043d66c:	e92d4030 	push	{r4, r5, lr}
c043d670:	e24dd014 	sub	sp, sp, #20
c043d674:	e59f5064 	ldr	r5, [pc, #100]	@ 0xc043d6e0
c043d678:	e1a04001 	mov	r4, r1
c043d67c:	e5953000 	ldr	r3, [r5]
c043d680:	e58d300c 	str	r3, [sp, #12]
c043d684:	e5923000 	ldr	r3, [r2]
c043d688:	e1d320b2 	ldrh	r2, [r3, #2]
c043d68c:	e1cd10b4 	strh	r1, [sp, #4]
c043d690:	e1a0100d 	mov	r1, sp
c043d694:	e58d0008 	str	r0, [sp, #8]
c043d698:	e1cd20b0 	strh	r2, [sp]
c043d69c:	e3a02001 	mov	r2, #1
c043d6a0:	e5930018 	ldr	r0, [r3, #24]
c043d6a4:	e1cd20b2 	strh	r2, [sp, #2]
c043d6a8:	eb004b2e 	bl	0xc0450368
c043d6ac:	e3500001 	cmp	r0, #1
c043d6b0:	01a00004 	moveq	r0, r4
c043d6b4:	0a000002 	beq	0xc043d6c4
c043d6b8:	e3a00014 	mov	r0, #20
c043d6bc:	ebf4c0d7 	bl	0xc016da20
c043d6c0:	e3e00004 	mvn	r0, #4
c043d6c4:	e59d200c 	ldr	r2, [sp, #12]
c043d6c8:	e5953000 	ldr	r3, [r5]
c043d6cc:	e1520003 	cmp	r2, r3
c043d6d0:	0a000000 	beq	0xc043d6d8
c043d6d4:	ebf36eb4 	bl	0xc01191ac
c043d6d8:	e28dd014 	add	sp, sp, #20
c043d6dc:	e8bd8030 	pop	{r4, r5, pc}
c043d6e0:	c0a04e08 	adcgt	r4, r0, r8, lsl #28
c043d6e4:	e92d4030 	push	{r4, r5, lr}
c043d6e8:	e1a04002 	mov	r4, r2
c043d6ec:	e59f5090 	ldr	r5, [pc, #144]	@ 0xc043d784
c043d6f0:	e24dd024 	sub	sp, sp, #36	@ 0x24
c043d6f4:	e5933000 	ldr	r3, [r3]
c043d6f8:	e28dc01a 	add	ip, sp, #26
c043d6fc:	e5952000 	ldr	r2, [r5]
c043d700:	e58d201c 	str	r2, [sp, #28]
c043d704:	e1d320b2 	ldrh	r2, [r3, #2]
c043d708:	e58dc008 	str	ip, [sp, #8]
c043d70c:	e1cd20b0 	strh	r2, [sp]
c043d710:	e3a02000 	mov	r2, #0
c043d714:	e1cd20b2 	strh	r2, [sp, #2]
c043d718:	e3a02002 	mov	r2, #2
c043d71c:	e1cd20b4 	strh	r2, [sp, #4]
c043d720:	e1d3c0b2 	ldrh	ip, [r3, #2]
c043d724:	e58d1014 	str	r1, [sp, #20]
c043d728:	e1a01420 	lsr	r1, r0, #8
c043d72c:	e5cd001b 	strb	r0, [sp, #27]
c043d730:	e5cd101a 	strb	r1, [sp, #26]
c043d734:	e1a0100d 	mov	r1, sp
c043d738:	e5930018 	ldr	r0, [r3, #24]
c043d73c:	e1cdc0bc 	strh	ip, [sp, #12]
c043d740:	e3a0c001 	mov	ip, #1
c043d744:	e1cd41b0 	strh	r4, [sp, #16]
c043d748:	e1cdc0be 	strh	ip, [sp, #14]
c043d74c:	eb004b05 	bl	0xc0450368
c043d750:	e3500002 	cmp	r0, #2
c043d754:	01a00004 	moveq	r0, r4
c043d758:	0a000002 	beq	0xc043d768
c043d75c:	e3a00014 	mov	r0, #20
c043d760:	ebf4c0ae 	bl	0xc016da20
c043d764:	e3e00004 	mvn	r0, #4
c043d768:	e59d201c 	ldr	r2, [sp, #28]
c043d76c:	e5953000 	ldr	r3, [r5]
c043d770:	e1520003 	cmp	r2, r3
c043d774:	0a000000 	beq	0xc043d77c
c043d778:	ebf36e8b 	bl	0xc01191ac
c043d77c:	e28dd024 	add	sp, sp, #36	@ 0x24
c043d780:	e8bd8030 	pop	{r4, r5, pc}
c043d784:	c0a04e08 	adcgt	r4, r0, r8, lsl #28
c043d788:	e59f0000 	ldr	r0, [pc]	@ 0xc043d790
c043d78c:	ea00489e 	b	0xc044fa0c
c043d790:	c0a2d2e8 	adcgt	sp, r2, r8, ror #5
c043d794:	e92d4070 	push	{r4, r5, r6, lr}
c043d798:	e1a04000 	mov	r4, r0
c043d79c:	e5900018 	ldr	r0, [r0, #24]
c043d7a0:	e5903008 	ldr	r3, [r0, #8]
c043d7a4:	e5933010 	ldr	r3, [r3, #16]
c043d7a8:	e12fff33 	blx	r3
c043d7ac:	e3100001 	tst	r0, #1
c043d7b0:	0a000022 	beq	0xc043d840
c043d7b4:	e594621c 	ldr	r6, [r4, #540]	@ 0x21c
c043d7b8:	e59f5088 	ldr	r5, [pc, #136]	@ 0xc043d848
c043d7bc:	e3560000 	cmp	r6, #0
c043d7c0:	0a000013 	beq	0xc043d814
c043d7c4:	e2853fd6 	add	r3, r5, #856	@ 0x358
c043d7c8:	e3a02000 	mov	r2, #0
c043d7cc:	e59f1078 	ldr	r1, [pc, #120]	@ 0xc043d84c
c043d7d0:	e1a00006 	mov	r0, r6
c043d7d4:	ebfc27e9 	bl	0xc0347780
c043d7d8:	e3500000 	cmp	r0, #0
c043d7dc:	e5850354 	str	r0, [r5, #852]	@ 0x354
c043d7e0:	ba000001 	blt	0xc043d7ec
c043d7e4:	e59f1064 	ldr	r1, [pc, #100]	@ 0xc043d850
c043d7e8:	ebfc2664 	bl	0xc0347180
c043d7ec:	e59f3060 	ldr	r3, [pc, #96]	@ 0xc043d854
c043d7f0:	e3a02000 	mov	r2, #0
c043d7f4:	e59f105c 	ldr	r1, [pc, #92]	@ 0xc043d858
c043d7f8:	e1a00006 	mov	r0, r6
c043d7fc:	ebfc27df 	bl	0xc0347780
c043d800:	e3500000 	cmp	r0, #0
c043d804:	e585035c 	str	r0, [r5, #860]	@ 0x35c
c043d808:	ba000001 	blt	0xc043d814
c043d80c:	e59f1048 	ldr	r1, [pc, #72]	@ 0xc043d85c
c043d810:	ebfc265a 	bl	0xc0347180
c043d814:	e59f0044 	ldr	r0, [pc, #68]	@ 0xc043d860
c043d818:	e59f3044 	ldr	r3, [pc, #68]	@ 0xc043d864
c043d81c:	e5850118 	str	r0, [r5, #280]	@ 0x118
c043d820:	e2400faa 	sub	r0, r0, #680	@ 0x2a8
c043d824:	e5834000 	str	r4, [r3]
c043d828:	e2844020 	add	r4, r4, #32
c043d82c:	e5854100 	str	r4, [r5, #256]	@ 0x100
c043d830:	ebfdb7d7 	bl	0xc03ab794
c043d834:	e3500000 	cmp	r0, #0
c043d838:	13e00012 	mvnne	r0, #18
c043d83c:	e8bd8070 	pop	{r4, r5, r6, pc}
c043d840:	e3e00004 	mvn	r0, #4
c043d844:	e8bd8070 	pop	{r4, r5, r6, pc}
c043d848:	c0a2d2e8 	adcgt	sp, r2, r8, ror #5
c043d84c:	c08027b4 			@ <UNDEFINED> instruction: 0xc08027b4
c043d850:	c08027bd 			@ <UNDEFINED> instruction: 0xc08027bd
c043d854:	c0a2d648 	adcgt	sp, r2, r8, asr #12
c043d858:	c08027c9 	addgt	r2, r0, r9, asr #15
c043d85c:	c08027d2 	ldrdgt	r2, [r0], r2	@ <UNPREDICTABLE>
c043d860:	c0a2d638 	adcgt	sp, r2, r8, lsr r6
c043d864:	c0a5d4d8 	ldrdgt	sp, [r5], r8	@ <UNPREDICTABLE>
c043d868:	e92d43f0 	push	{r4, r5, r6, r7, r8, r9, lr}
c043d86c:	e24dd014 	sub	sp, sp, #20
c043d870:	e59f60b4 	ldr	r6, [pc, #180]	@ 0xc043d92c
c043d874:	e1a09001 	mov	r9, r1
c043d878:	e5937000 	ldr	r7, [r3]
c043d87c:	e3a03000 	mov	r3, #0
c043d880:	e58d3000 	str	r3, [sp]
c043d884:	e1a08000 	mov	r8, r0
c043d888:	e5961000 	ldr	r1, [r6]
c043d88c:	e2820002 	add	r0, r2, #2
c043d890:	e58d3004 	str	r3, [sp, #4]
c043d894:	e1a04002 	mov	r4, r2
c043d898:	e58d3008 	str	r3, [sp, #8]
c043d89c:	e1d730b2 	ldrh	r3, [r7, #2]
c043d8a0:	e58d100c 	str	r1, [sp, #12]
c043d8a4:	e3a01d37 	mov	r1, #3520	@ 0xdc0
c043d8a8:	e1cd00b4 	strh	r0, [sp, #4]
c043d8ac:	e1cd30b0 	strh	r3, [sp]
c043d8b0:	ebf62fe1 	bl	0xc01c983c
c043d8b4:	e2505000 	subs	r5, r0, #0
c043d8b8:	03e0400b 	mvneq	r4, #11
c043d8bc:	0a000012 	beq	0xc043d90c
c043d8c0:	e1a03428 	lsr	r3, r8, #8
c043d8c4:	e1a02004 	mov	r2, r4
c043d8c8:	e5c53000 	strb	r3, [r5]
c043d8cc:	e1a01009 	mov	r1, r9
c043d8d0:	e5c58001 	strb	r8, [r5, #1]
c043d8d4:	e2850002 	add	r0, r5, #2
c043d8d8:	e58d5008 	str	r5, [sp, #8]
c043d8dc:	eb082aff 	bl	0xc06484e0
c043d8e0:	e3a02001 	mov	r2, #1
c043d8e4:	e5970018 	ldr	r0, [r7, #24]
c043d8e8:	e1a0100d 	mov	r1, sp
c043d8ec:	eb004a9d 	bl	0xc0450368
c043d8f0:	e3500001 	cmp	r0, #1
c043d8f4:	0a000002 	beq	0xc043d904
c043d8f8:	e3a00008 	mov	r0, #8
c043d8fc:	e3e04004 	mvn	r4, #4
c043d900:	ebf4c046 	bl	0xc016da20
c043d904:	e1a00005 	mov	r0, r5
c043d908:	ebf62cd2 	bl	0xc01c8c58
c043d90c:	e59d200c 	ldr	r2, [sp, #12]
c043d910:	e1a00004 	mov	r0, r4
c043d914:	e5963000 	ldr	r3, [r6]
c043d918:	e1520003 	cmp	r2, r3
c043d91c:	0a000000 	beq	0xc043d924
c043d920:	ebf36e21 	bl	0xc01191ac
c043d924:	e28dd014 	add	sp, sp, #20
c043d928:	e8bd83f0 	pop	{r4, r5, r6, r7, r8, r9, pc}
c043d92c:	c0a04e08 	adcgt	r4, r0, r8, lsl #28
c043d930:	e52de004 	push	{lr}		@ (str lr, [sp, #-4]!)
c043d934:	e1a0c001 	mov	ip, r1
c043d938:	e1a01002 	mov	r1, r2
c043d93c:	e1a02003 	mov	r2, r3
c043d940:	e5903010 	ldr	r3, [r0, #16]
c043d944:	e1a0000c 	mov	r0, ip
c043d948:	e593e018 	ldr	lr, [r3, #24]
c043d94c:	e5933014 	ldr	r3, [r3, #20]
c043d950:	e1a0c00e 	mov	ip, lr
c043d954:	e49de004 	pop	{lr}		@ (ldr lr, [sp], #4)
c043d958:	e12fff1c 	bx	ip
c043d95c:	e52de004 	push	{lr}		@ (str lr, [sp, #-4]!)
c043d960:	e1a0c001 	mov	ip, r1
c043d964:	e1a01002 	mov	r1, r2
c043d968:	e1a02003 	mov	r2, r3
c043d96c:	e5903010 	ldr	r3, [r0, #16]
c043d970:	e1a0000c 	mov	r0, ip
c043d974:	e593e01c 	ldr	lr, [r3, #28]
c043d978:	e5933014 	ldr	r3, [r3, #20]
c043d97c:	e1a0c00e 	mov	ip, lr
c043d980:	e49de004 	pop	{lr}		@ (ldr lr, [sp], #4)
c043d984:	e12fff1c 	bx	ip
c043d988:	e52de004 	push	{lr}		@ (str lr, [sp, #-4]!)
c043d98c:	e1a0c001 	mov	ip, r1
c043d990:	e5903010 	ldr	r3, [r0, #16]
c043d994:	e1a01002 	mov	r1, r2
c043d998:	e1a0000c 	mov	r0, ip
c043d99c:	e593e02c 	ldr	lr, [r3, #44]	@ 0x2c
c043d9a0:	e5932014 	ldr	r2, [r3, #20]
c043d9a4:	e1a0300e 	mov	r3, lr
c043d9a8:	e49de004 	pop	{lr}		@ (ldr lr, [sp], #4)
c043d9ac:	e12fff13 	bx	r3
c043d9b0:	e2400001 	sub	r0, r0, #1
c043d9b4:	e1b00620 	lsrs	r0, r0, #12
c043d9b8:	116f0f10 	clzne	r0, r0
c043d9bc:	12600020 	rsbne	r0, r0, #32
c043d9c0:	e12fff1e 	bx	lr
c043d9c4:	e92d401f 	push	{r0, r1, r2, r3, r4, lr}
c043d9c8:	e3a01001 	mov	r1, #1
c043d9cc:	e59f4038 	ldr	r4, [pc, #56]	@ 0xc043da0c
c043d9d0:	e28d2004 	add	r2, sp, #4
c043d9d4:	e5943000 	ldr	r3, [r4]
c043d9d8:	e58d300c 	str	r3, [sp, #12]
c043d9dc:	e3a03008 	mov	r3, #8
c043d9e0:	ebffffd2 	bl	0xc043d930
c043d9e4:	e3500000 	cmp	r0, #0
c043d9e8:	e59d200c 	ldr	r2, [sp, #12]
c043d9ec:	e5943000 	ldr	r3, [r4]
c043d9f0:	a5dd0004 	ldrbge	r0, [sp, #4]
c043d9f4:	a200000f 	andge	r0, r0, #15
c043d9f8:	e1520003 	cmp	r2, r3
c043d9fc:	0a000000 	beq	0xc043da04
c043da00:	ebf36de9 	bl	0xc01191ac
c043da04:	e28dd010 	add	sp, sp, #16
c043da08:	e8bd8010 	pop	{r4, pc}
c043da0c:	c0a04e08 	adcgt	r4, r0, r8, lsl #28
c043da10:	e92d4037 	push	{r0, r1, r2, r4, r5, lr}
c043da14:	e3a01000 	mov	r1, #0
c043da18:	e59f4064 	ldr	r4, [pc, #100]	@ 0xc043da84
c043da1c:	e1a0200d 	mov	r2, sp
c043da20:	e1a05000 	mov	r5, r0
c043da24:	e5943000 	ldr	r3, [r4]
c043da28:	e58d3004 	str	r3, [sp, #4]
c043da2c:	e3a03001 	mov	r3, #1
c043da30:	ebffffbe 	bl	0xc043d930
c043da34:	e3500000 	cmp	r0, #0
c043da38:	ba00000a 	blt	0xc043da68
c043da3c:	e5dd3000 	ldrb	r3, [sp]
c043da40:	e1a0200d 	mov	r2, sp
c043da44:	e3a0100c 	mov	r1, #12
c043da48:	e1a00005 	mov	r0, r5
c043da4c:	e5c53015 	strb	r3, [r5, #21]
c043da50:	e3a03004 	mov	r3, #4
c043da54:	ebffffb5 	bl	0xc043d930
c043da58:	e3500000 	cmp	r0, #0
c043da5c:	a59d3000 	ldrge	r3, [sp]
c043da60:	a3a00000 	movge	r0, #0
c043da64:	a5853016 	strge	r3, [r5, #22]
c043da68:	e59d2004 	ldr	r2, [sp, #4]
c043da6c:	e5943000 	ldr	r3, [r4]
c043da70:	e1520003 	cmp	r2, r3
c043da74:	0a000000 	beq	0xc043da7c
c043da78:	ebf36dcb 	bl	0xc01191ac
c043da7c:	e28dd00c 	add	sp, sp, #12
c043da80:	e8bd8030 	pop	{r4, r5, pc}
c043da84:	c0a04e08 	adcgt	r4, r0, r8, lsl #28
c043da88:	e92d4037 	push	{r0, r1, r2, r4, r5, lr}
c043da8c:	e3a01009 	mov	r1, #9
c043da90:	e59f4040 	ldr	r4, [pc, #64]	@ 0xc043dad8
c043da94:	e28d2003 	add	r2, sp, #3
c043da98:	e1a05000 	mov	r5, r0
c043da9c:	e5943000 	ldr	r3, [r4]
c043daa0:	e58d3004 	str	r3, [sp, #4]
c043daa4:	e3a03001 	mov	r3, #1
c043daa8:	ebffffa0 	bl	0xc043d930
c043daac:	e3500000 	cmp	r0, #0
c043dab0:	e59d2004 	ldr	r2, [sp, #4]
c043dab4:	a5dd3003 	ldrbge	r3, [sp, #3]
c043dab8:	a3a00000 	movge	r0, #0
c043dabc:	a5c5301e 	strbge	r3, [r5, #30]
c043dac0:	e5943000 	ldr	r3, [r4]
c043dac4:	e1520003 	cmp	r2, r3
c043dac8:	0a000000 	beq	0xc043dad0
c043dacc:	ebf36db6 	bl	0xc01191ac
c043dad0:	e28dd00c 	add	sp, sp, #12
c043dad4:	e8bd8030 	pop	{r4, r5, pc}
c043dad8:	c0a04e08 	adcgt	r4, r0, r8, lsl #28
c043dadc:	e92d4037 	push	{r0, r1, r2, r4, r5, lr}
c043dae0:	e3a010f4 	mov	r1, #244	@ 0xf4
c043dae4:	e59f4040 	ldr	r4, [pc, #64]	@ 0xc043db2c
c043dae8:	e28d2003 	add	r2, sp, #3
c043daec:	e1a05000 	mov	r5, r0
c043daf0:	e5943000 	ldr	r3, [r4]
c043daf4:	e58d3004 	str	r3, [sp, #4]
c043daf8:	e3a03001 	mov	r3, #1
c043dafc:	ebffff8b 	bl	0xc043d930
c043db00:	e3500000 	cmp	r0, #0
c043db04:	e59d2004 	ldr	r2, [sp, #4]
c043db08:	a5dd3003 	ldrbge	r3, [sp, #3]
c043db0c:	a3a00000 	movge	r0, #0
c043db10:	a5c53014 	strbge	r3, [r5, #20]
c043db14:	e5943000 	ldr	r3, [r4]
c043db18:	e1520003 	cmp	r2, r3
c043db1c:	0a000000 	beq	0xc043db24
c043db20:	ebf36da1 	bl	0xc01191ac
c043db24:	e28dd00c 	add	sp, sp, #12
c043db28:	e8bd8030 	pop	{r4, r5, pc}
c043db2c:	c0a04e08 	adcgt	r4, r0, r8, lsl #28
c043db30:	e92d4037 	push	{r0, r1, r2, r4, r5, lr}
c043db34:	e3a01005 	mov	r1, #5
c043db38:	e59f506c 	ldr	r5, [pc, #108]	@ 0xc043dbac
c043db3c:	e1a0200d 	mov	r2, sp
c043db40:	e1a04000 	mov	r4, r0
c043db44:	e5953000 	ldr	r3, [r5]
c043db48:	e58d3004 	str	r3, [sp, #4]
c043db4c:	e3a03004 	mov	r3, #4
c043db50:	ebffff76 	bl	0xc043d930
c043db54:	e3500000 	cmp	r0, #0
c043db58:	ba00000c 	blt	0xc043db90
c043db5c:	e5dd3000 	ldrb	r3, [sp]
c043db60:	e3a00000 	mov	r0, #0
c043db64:	e5dd2001 	ldrb	r2, [sp, #1]
c043db68:	e1a03403 	lsl	r3, r3, #8
c043db6c:	e2033c3f 	and	r3, r3, #16128	@ 0x3f00
c043db70:	e1823003 	orr	r3, r2, r3
c043db74:	e1c432b0 	strh	r3, [r4, #32]
c043db78:	e5dd3002 	ldrb	r3, [sp, #2]
c043db7c:	e5dd2003 	ldrb	r2, [sp, #3]
c043db80:	e1a03403 	lsl	r3, r3, #8
c043db84:	e2033c3f 	and	r3, r3, #16128	@ 0x3f00
c043db88:	e1823003 	orr	r3, r2, r3
c043db8c:	e1c432b2 	strh	r3, [r4, #34]	@ 0x22
c043db90:	e59d2004 	ldr	r2, [sp, #4]
c043db94:	e5953000 	ldr	r3, [r5]
c043db98:	e1520003 	cmp	r2, r3
c043db9c:	0a000000 	beq	0xc043dba4
c043dba0:	ebf36d81 	bl	0xc01191ac
c043dba4:	e28dd00c 	add	sp, sp, #12
c043dba8:	e8bd8030 	pop	{r4, r5, pc}
c043dbac:	c0a04e08 	adcgt	r4, r0, r8, lsl #28
c043dbb0:	e92d4073 	push	{r0, r1, r4, r5, r6, lr}
c043dbb4:	e3a010f1 	mov	r1, #241	@ 0xf1
c043dbb8:	e59f4094 	ldr	r4, [pc, #148]	@ 0xc043dc54
c043dbbc:	e1a0200d 	mov	r2, sp
c043dbc0:	e1a05000 	mov	r5, r0
c043dbc4:	e5943000 	ldr	r3, [r4]
c043dbc8:	e58d3004 	str	r3, [sp, #4]
c043dbcc:	e3a03001 	mov	r3, #1
c043dbd0:	ebffff56 	bl	0xc043d930
c043dbd4:	e3500000 	cmp	r0, #0
c043dbd8:	ba000016 	blt	0xc043dc38
c043dbdc:	e5dd6000 	ldrb	r6, [sp]
c043dbe0:	e1a0200d 	mov	r2, sp
c043dbe4:	e3a010f1 	mov	r1, #241	@ 0xf1
c043dbe8:	e1a00005 	mov	r0, r5
c043dbec:	e3c63003 	bic	r3, r6, #3
c043dbf0:	e3833001 	orr	r3, r3, #1
c043dbf4:	e5cd3000 	strb	r3, [sp]
c043dbf8:	e3a03001 	mov	r3, #1
c043dbfc:	ebffff56 	bl	0xc043d95c
c043dc00:	e3a03004 	mov	r3, #4
c043dc04:	e3a0100c 	mov	r1, #12
c043dc08:	e1a00005 	mov	r0, r5
c043dc0c:	e1a0200d 	mov	r2, sp
c043dc10:	ebffff46 	bl	0xc043d930
c043dc14:	e3a010f1 	mov	r1, #241	@ 0xf1
c043dc18:	e1a00005 	mov	r0, r5
c043dc1c:	e59d3000 	ldr	r3, [sp]
c043dc20:	e1a0200d 	mov	r2, sp
c043dc24:	e5cd6000 	strb	r6, [sp]
c043dc28:	e585301a 	str	r3, [r5, #26]
c043dc2c:	e3a03001 	mov	r3, #1
c043dc30:	ebffff49 	bl	0xc043d95c
c043dc34:	e3a00000 	mov	r0, #0
c043dc38:	e59d2004 	ldr	r2, [sp, #4]
c043dc3c:	e5943000 	ldr	r3, [r4]
c043dc40:	e1520003 	cmp	r2, r3
c043dc44:	0a000000 	beq	0xc043dc4c
c043dc48:	ebf36d57 	bl	0xc01191ac
c043dc4c:	e28dd008 	add	sp, sp, #8
c043dc50:	e8bd8070 	pop	{r4, r5, r6, pc}
c043dc54:	c0a04e08 	adcgt	r4, r0, r8, lsl #28
c043dc58:	e92d4073 	push	{r0, r1, r4, r5, r6, lr}
c043dc5c:	e3a06000 	mov	r6, #0
c043dc60:	e59f5068 	ldr	r5, [pc, #104]	@ 0xc043dcd0
c043dc64:	e28d2003 	add	r2, sp, #3
c043dc68:	e5c06190 	strb	r6, [r0, #400]	@ 0x190
c043dc6c:	e3a010f0 	mov	r1, #240	@ 0xf0
c043dc70:	e5c0608a 	strb	r6, [r0, #138]	@ 0x8a
c043dc74:	e1a04000 	mov	r4, r0
c043dc78:	e5953000 	ldr	r3, [r5]
c043dc7c:	e58d3004 	str	r3, [sp, #4]
c043dc80:	e3a03001 	mov	r3, #1
c043dc84:	ebffff29 	bl	0xc043d930
c043dc88:	e3500000 	cmp	r0, #0
c043dc8c:	ba000008 	blt	0xc043dcb4
c043dc90:	e5dd3003 	ldrb	r3, [sp, #3]
c043dc94:	e1a00006 	mov	r0, r6
c043dc98:	e5c4608a 	strb	r6, [r4, #138]	@ 0x8a
c043dc9c:	e1a023a3 	lsr	r2, r3, #7
c043dca0:	e5c43028 	strb	r3, [r4, #40]	@ 0x28
c043dca4:	e5c42190 	strb	r2, [r4, #400]	@ 0x190
c043dca8:	e7e03253 	ubfx	r3, r3, #4, #1
c043dcac:	e5c42193 	strb	r2, [r4, #403]	@ 0x193
c043dcb0:	e5c4308f 	strb	r3, [r4, #143]	@ 0x8f
c043dcb4:	e59d2004 	ldr	r2, [sp, #4]
c043dcb8:	e5953000 	ldr	r3, [r5]
c043dcbc:	e1520003 	cmp	r2, r3
c043dcc0:	0a000000 	beq	0xc043dcc8
c043dcc4:	ebf36d38 	bl	0xc01191ac
c043dcc8:	e28dd008 	add	sp, sp, #8
c043dccc:	e8bd8070 	pop	{r4, r5, r6, pc}
c043dcd0:	c0a04e08 	adcgt	r4, r0, r8, lsl #28
c043dcd4:	e92d4073 	push	{r0, r1, r4, r5, r6, lr}
c043dcd8:	e1a06001 	mov	r6, r1
c043dcdc:	e59f4088 	ldr	r4, [pc, #136]	@ 0xc043dd6c
c043dce0:	e28d2003 	add	r2, sp, #3
c043dce4:	e3a010f1 	mov	r1, #241	@ 0xf1
c043dce8:	e1a05000 	mov	r5, r0
c043dcec:	e5943000 	ldr	r3, [r4]
c043dcf0:	e58d3004 	str	r3, [sp, #4]
c043dcf4:	e3a03001 	mov	r3, #1
c043dcf8:	ebffff0c 	bl	0xc043d930
c043dcfc:	e3500000 	cmp	r0, #0
c043dd00:	ba000012 	blt	0xc043dd50
c043dd04:	e5dd3003 	ldrb	r3, [sp, #3]
c043dd08:	e3560000 	cmp	r6, #0
c043dd0c:	e28d2003 	add	r2, sp, #3
c043dd10:	e3a010f1 	mov	r1, #241	@ 0xf1
c043dd14:	0203307f 	andeq	r3, r3, #127	@ 0x7f
c043dd18:	e1a00005 	mov	r0, r5
c043dd1c:	11e03c83 	mvnne	r3, r3, lsl #25
c043dd20:	11e03ca3 	mvnne	r3, r3, lsr #25
c043dd24:	e5cd3003 	strb	r3, [sp, #3]
c043dd28:	e3a03001 	mov	r3, #1
c043dd2c:	ebffff0a 	bl	0xc043d95c
c043dd30:	e3500000 	cmp	r0, #0
c043dd34:	ba000005 	blt	0xc043dd50
c043dd38:	e3a03001 	mov	r3, #1
c043dd3c:	e28d2003 	add	r2, sp, #3
c043dd40:	e3a010f1 	mov	r1, #241	@ 0xf1
c043dd44:	e1a00005 	mov	r0, r5
c043dd48:	ebfffef8 	bl	0xc043d930
c043dd4c:	e3a00000 	mov	r0, #0
c043dd50:	e59d2004 	ldr	r2, [sp, #4]
c043dd54:	e5943000 	ldr	r3, [r4]
c043dd58:	e1520003 	cmp	r2, r3
c043dd5c:	0a000000 	beq	0xc043dd64
c043dd60:	ebf36d11 	bl	0xc01191ac
c043dd64:	e28dd008 	add	sp, sp, #8
c043dd68:	e8bd8070 	pop	{r4, r5, r6, pc}
c043dd6c:	c0a04e08 	adcgt	r4, r0, r8, lsl #28
c043dd70:	e2400063 	sub	r0, r0, #99	@ 0x63
c043dd74:	e6ef0070 	uxtb	r0, r0
c043dd78:	e3500065 	cmp	r0, #101	@ 0x65
c043dd7c:	959f3008 	ldrls	r3, [pc, #8]	@ 0xc043dd8c
c043dd80:	919300d0 	ldrsbls	r0, [r3, r0]
c043dd84:	83a00000 	movhi	r0, #0
c043dd88:	e12fff1e 	bx	lr
c043dd8c:	c0731e88 	rsbsgt	r1, r3, r8, lsl #29
c043dd90:	e92d4073 	push	{r0, r1, r4, r5, r6, lr}
c043dd94:	e1a06001 	mov	r6, r1
c043dd98:	e59f4068 	ldr	r4, [pc, #104]	@ 0xc043de08
c043dd9c:	e28d2003 	add	r2, sp, #3
c043dda0:	e3a01002 	mov	r1, #2
c043dda4:	e1a05000 	mov	r5, r0
c043dda8:	e5943000 	ldr	r3, [r4]
c043ddac:	e58d3004 	str	r3, [sp, #4]
c043ddb0:	e3a03001 	mov	r3, #1
c043ddb4:	ebfffedd 	bl	0xc043d930
c043ddb8:	e3500000 	cmp	r0, #0
c043ddbc:	ba00000a 	blt	0xc043ddec
c043ddc0:	e5dd3003 	ldrb	r3, [sp, #3]
c043ddc4:	e3560000 	cmp	r6, #0
c043ddc8:	e28d2003 	add	r2, sp, #3
c043ddcc:	e3a01002 	mov	r1, #2
c043ddd0:	13833002 	orrne	r3, r3, #2
c043ddd4:	020330fd 	andeq	r3, r3, #253	@ 0xfd
c043ddd8:	e1a00005 	mov	r0, r5
c043dddc:	e5cd3003 	strb	r3, [sp, #3]
c043dde0:	e3a03001 	mov	r3, #1
c043dde4:	ebfffedc 	bl	0xc043d95c
c043dde8:	e0000fc0 	and	r0, r0, r0, asr #31
c043ddec:	e59d2004 	ldr	r2, [sp, #4]
c043ddf0:	e5943000 	ldr	r3, [r4]
c043ddf4:	e1520003 	cmp	r2, r3
c043ddf8:	0a000000 	beq	0xc043de00
c043ddfc:	ebf36cea 	bl	0xc01191ac
c043de00:	e28dd008 	add	sp, sp, #8
c043de04:	e8bd8070 	pop	{r4, r5, r6, pc}
c043de08:	c0a04e08 	adcgt	r4, r0, r8, lsl #28
c043de0c:	e92d4073 	push	{r0, r1, r4, r5, r6, lr}
c043de10:	e1a05001 	mov	r5, r1
c043de14:	e59f4078 	ldr	r4, [pc, #120]	@ 0xc043de94
c043de18:	e28d2003 	add	r2, sp, #3
c043de1c:	e3a01002 	mov	r1, #2
c043de20:	e1a06000 	mov	r6, r0
c043de24:	e5943000 	ldr	r3, [r4]
c043de28:	e58d3004 	str	r3, [sp, #4]
c043de2c:	e3a03001 	mov	r3, #1
c043de30:	ebfffebe 	bl	0xc043d930
c043de34:	e3500000 	cmp	r0, #0
c043de38:	ba00000e 	blt	0xc043de78
c043de3c:	e5dd3003 	ldrb	r3, [sp, #3]
c043de40:	e3550000 	cmp	r5, #0
c043de44:	e28d2003 	add	r2, sp, #3
c043de48:	e3a01002 	mov	r1, #2
c043de4c:	13833020 	orrne	r3, r3, #32
c043de50:	020330df 	andeq	r3, r3, #223	@ 0xdf
c043de54:	e1a00006 	mov	r0, r6
c043de58:	e5cd3003 	strb	r3, [sp, #3]
c043de5c:	e3a03001 	mov	r3, #1
c043de60:	ebfffebd 	bl	0xc043d95c
c043de64:	e3500000 	cmp	r0, #0
c043de68:	a59f3028 	ldrge	r3, [pc, #40]	@ 0xc043de98
c043de6c:	a3a00000 	movge	r0, #0
c043de70:	a5933000 	ldrge	r3, [r3]
c043de74:	a5c3508b 	strbge	r5, [r3, #139]	@ 0x8b
c043de78:	e59d2004 	ldr	r2, [sp, #4]
c043de7c:	e5943000 	ldr	r3, [r4]
c043de80:	e1520003 	cmp	r2, r3
c043de84:	0a000000 	beq	0xc043de8c
c043de88:	ebf36cc7 	bl	0xc01191ac
c043de8c:	e28dd008 	add	sp, sp, #8
c043de90:	e8bd8070 	pop	{r4, r5, r6, pc}
c043de94:	c0a04e08 	adcgt	r4, r0, r8, lsl #28
c043de98:	c0a5d4d0 	ldrdgt	sp, [r5], r0	@ <UNPREDICTABLE>
c043de9c:	e0812002 	add	r2, r1, r2
c043dea0:	e1510002 	cmp	r1, r2
c043dea4:	1a000000 	bne	0xc043deac
c043dea8:	e12fff1e 	bx	lr
c043deac:	e52de004 	push	{lr}		@ (str lr, [sp, #-4]!)
c043deb0:	e4d1c001 	ldrb	ip, [r1], #1
c043deb4:	e1d030b0 	ldrh	r3, [r0]
c043deb8:	e1510002 	cmp	r1, r2
c043debc:	e083300c 	add	r3, r3, ip
c043dec0:	e6ff3073 	uxth	r3, r3
c043dec4:	e6efe073 	uxtb	lr, r3
c043dec8:	e3c330ff 	bic	r3, r3, #255	@ 0xff
c043decc:	e1a0c08e 	lsl	ip, lr, #1
c043ded0:	e18cc3ae 	orr	ip, ip, lr, lsr #7
c043ded4:	e6efc07c 	uxtb	ip, ip
c043ded8:	e18c3003 	orr	r3, ip, r3
c043dedc:	e1c030b0 	strh	r3, [r0]
c043dee0:	1afffff2 	bne	0xc043deb0
c043dee4:	e49df004 	pop	{pc}		@ (ldr pc, [sp], #4)
c043dee8:	e92d4073 	push	{r0, r1, r4, r5, r6, lr}
c043deec:	e2806f71 	add	r6, r0, #452	@ 0x1c4
c043def0:	e59f509c 	ldr	r5, [pc, #156]	@ 0xc043df94
c043def4:	e2866002 	add	r6, r6, #2
c043def8:	e3a02005 	mov	r2, #5
c043defc:	e3a01007 	mov	r1, #7
c043df00:	e1a04000 	mov	r4, r0
c043df04:	e5953000 	ldr	r3, [r5]
c043df08:	e58d3004 	str	r3, [sp, #4]
c043df0c:	e3a0305a 	mov	r3, #90	@ 0x5a
c043df10:	e1cd30b2 	strh	r3, [sp, #2]
c043df14:	e5d0302a 	ldrb	r3, [r0, #42]	@ 0x2a
c043df18:	e0232391 	mla	r3, r1, r3, r2
c043df1c:	e1a02006 	mov	r2, r6
c043df20:	e3a01010 	mov	r1, #16
c043df24:	ebfffe81 	bl	0xc043d930
c043df28:	e3500000 	cmp	r0, #0
c043df2c:	ba000011 	blt	0xc043df78
c043df30:	e5d4308f 	ldrb	r3, [r4, #143]	@ 0x8f
c043df34:	e3530000 	cmp	r3, #0
c043df38:	0a00000b 	beq	0xc043df6c
c043df3c:	e3a02004 	mov	r2, #4
c043df40:	e1a01006 	mov	r1, r6
c043df44:	e28d0002 	add	r0, sp, #2
c043df48:	ebffffd3 	bl	0xc043de9c
c043df4c:	e5d4202a 	ldrb	r2, [r4, #42]	@ 0x2a
c043df50:	e3520000 	cmp	r2, #0
c043df54:	0a000004 	beq	0xc043df6c
c043df58:	e2841f72 	add	r1, r4, #456	@ 0x1c8
c043df5c:	e0622182 	rsb	r2, r2, r2, lsl #3
c043df60:	e2811002 	add	r1, r1, #2
c043df64:	e28d0002 	add	r0, sp, #2
c043df68:	ebffffcb 	bl	0xc043de9c
c043df6c:	e5d431c8 	ldrb	r3, [r4, #456]	@ 0x1c8
c043df70:	e3a00000 	mov	r0, #0
c043df74:	e5c43088 	strb	r3, [r4, #136]	@ 0x88
c043df78:	e59d2004 	ldr	r2, [sp, #4]
c043df7c:	e5953000 	ldr	r3, [r5]
c043df80:	e1520003 	cmp	r2, r3
c043df84:	0a000000 	beq	0xc043df8c
c043df88:	ebf36c87 	bl	0xc01191ac
c043df8c:	e28dd008 	add	sp, sp, #8
c043df90:	e8bd8070 	pop	{r4, r5, r6, pc}
c043df94:	c0a04e08 	adcgt	r4, r0, r8, lsl #28
c043df98:	e92d4013 	push	{r0, r1, r4, lr}
c043df9c:	e28d2008 	add	r2, sp, #8
c043dfa0:	e59f404c 	ldr	r4, [pc, #76]	@ 0xc043dff4
c043dfa4:	e3a010f8 	mov	r1, #248	@ 0xf8
c043dfa8:	e59f0048 	ldr	r0, [pc, #72]	@ 0xc043dff8
c043dfac:	e5943000 	ldr	r3, [r4]
c043dfb0:	e5900000 	ldr	r0, [r0]
c043dfb4:	e58d3004 	str	r3, [sp, #4]
c043dfb8:	e3e03007 	mvn	r3, #7
c043dfbc:	e5cd3002 	strb	r3, [sp, #2]
c043dfc0:	e3a03001 	mov	r3, #1
c043dfc4:	e5623005 	strb	r3, [r2, #-5]!
c043dfc8:	ebfffe63 	bl	0xc043d95c
c043dfcc:	e3500000 	cmp	r0, #0
c043dfd0:	e59d2004 	ldr	r2, [sp, #4]
c043dfd4:	e5943000 	ldr	r3, [r4]
c043dfd8:	d3a00000 	movle	r0, #0
c043dfdc:	c3a00001 	movgt	r0, #1
c043dfe0:	e1520003 	cmp	r2, r3
c043dfe4:	0a000000 	beq	0xc043dfec
c043dfe8:	ebf36c6f 	bl	0xc01191ac
c043dfec:	e28dd008 	add	sp, sp, #8
c043dff0:	e8bd8010 	pop	{r4, pc}
c043dff4:	c0a04e08 	adcgt	r4, r0, r8, lsl #28
c043dff8:	c0a5d4d0 	ldrdgt	sp, [r5], r0	@ <UNPREDICTABLE>
c043dffc:	e59f3090 	ldr	r3, [pc, #144]	@ 0xc043e094
c043e000:	e92d40f7 	push	{r0, r1, r2, r4, r5, r6, r7, lr}
c043e004:	e28d6008 	add	r6, sp, #8
c043e008:	e5932000 	ldr	r2, [r3]
c043e00c:	e3a05000 	mov	r5, #0
c043e010:	e59f7080 	ldr	r7, [pc, #128]	@ 0xc043e098
c043e014:	e1a04003 	mov	r4, r3
c043e018:	e58d2004 	str	r2, [sp, #4]
c043e01c:	e3e02000 	mvn	r2, #0
c043e020:	e5662005 	strb	r2, [r6, #-5]!
c043e024:	e3a00001 	mov	r0, #1
c043e028:	ebf4be7c 	bl	0xc016da20
c043e02c:	e3a03001 	mov	r3, #1
c043e030:	e1a02006 	mov	r2, r6
c043e034:	e3a010f8 	mov	r1, #248	@ 0xf8
c043e038:	e5970000 	ldr	r0, [r7]
c043e03c:	ebfffe3b 	bl	0xc043d930
c043e040:	e3500000 	cmp	r0, #0
c043e044:	da000003 	ble	0xc043e058
c043e048:	e5dd0003 	ldrb	r0, [sp, #3]
c043e04c:	e3500001 	cmp	r0, #1
c043e050:	1a000003 	bne	0xc043e064
c043e054:	e2855001 	add	r5, r5, #1
c043e058:	e3550ffa 	cmp	r5, #1000	@ 0x3e8
c043e05c:	dafffff0 	ble	0xc043e024
c043e060:	ea000003 	b	0xc043e074
c043e064:	e3550ffa 	cmp	r5, #1000	@ 0x3e8
c043e068:	d16f0f10 	clzle	r0, r0
c043e06c:	d1a002a0 	lsrle	r0, r0, #5
c043e070:	da000000 	ble	0xc043e078
c043e074:	e3a00000 	mov	r0, #0
c043e078:	e59d2004 	ldr	r2, [sp, #4]
c043e07c:	e5943000 	ldr	r3, [r4]
c043e080:	e1520003 	cmp	r2, r3
c043e084:	0a000000 	beq	0xc043e08c
c043e088:	ebf36c47 	bl	0xc01191ac
c043e08c:	e28dd00c 	add	sp, sp, #12
c043e090:	e8bd80f0 	pop	{r4, r5, r6, r7, pc}
c043e094:	c0a04e08 	adcgt	r4, r0, r8, lsl #28
c043e098:	c0a5d4d0 	ldrdgt	sp, [r5], r0	@ <UNPREDICTABLE>
c043e09c:	e92d4030 	push	{r4, r5, lr}
c043e0a0:	e24dd02c 	sub	sp, sp, #44	@ 0x2c
c043e0a4:	e59f5088 	ldr	r5, [pc, #136]	@ 0xc043e134
c043e0a8:	e3a02020 	mov	r2, #32
c043e0ac:	e3a01000 	mov	r1, #0
c043e0b0:	e1a04000 	mov	r4, r0
c043e0b4:	e28d0004 	add	r0, sp, #4
c043e0b8:	e5953000 	ldr	r3, [r5]
c043e0bc:	e58d3024 	str	r3, [sp, #36]	@ 0x24
c043e0c0:	eb082aa6 	bl	0xc0648b60
c043e0c4:	e59f006c 	ldr	r0, [pc, #108]	@ 0xc043e138
c043e0c8:	e3a03020 	mov	r3, #32
c043e0cc:	e3a01e11 	mov	r1, #272	@ 0x110
c043e0d0:	e5900000 	ldr	r0, [r0]
c043e0d4:	e28d2004 	add	r2, sp, #4
c043e0d8:	ebfffe14 	bl	0xc043d930
c043e0dc:	e3500000 	cmp	r0, #0
c043e0e0:	d3a00000 	movle	r0, #0
c043e0e4:	da00000b 	ble	0xc043e118
c043e0e8:	e28d3004 	add	r3, sp, #4
c043e0ec:	e28de024 	add	lr, sp, #36	@ 0x24
c043e0f0:	e1a02004 	mov	r2, r4
c043e0f4:	e1a0c003 	mov	ip, r3
c043e0f8:	e2822008 	add	r2, r2, #8
c043e0fc:	e8bc0003 	ldm	ip!, {r0, r1}
c043e100:	e15c000e 	cmp	ip, lr
c043e104:	e5020008 	str	r0, [r2, #-8]
c043e108:	e1a0300c 	mov	r3, ip
c043e10c:	e5021004 	str	r1, [r2, #-4]
c043e110:	1afffff7 	bne	0xc043e0f4
c043e114:	e3a00001 	mov	r0, #1
c043e118:	e59d2024 	ldr	r2, [sp, #36]	@ 0x24
c043e11c:	e5953000 	ldr	r3, [r5]
c043e120:	e1520003 	cmp	r2, r3
c043e124:	0a000000 	beq	0xc043e12c
c043e128:	ebf36c1f 	bl	0xc01191ac
c043e12c:	e28dd02c 	add	sp, sp, #44	@ 0x2c
c043e130:	e8bd8030 	pop	{r4, r5, pc}
c043e134:	c0a04e08 	adcgt	r4, r0, r8, lsl #28
c043e138:	c0a5d4d0 	ldrdgt	sp, [r5], r0	@ <UNPREDICTABLE>
c043e13c:	e92d40f0 	push	{r4, r5, r6, r7, lr}
c043e140:	e24dd02c 	sub	sp, sp, #44	@ 0x2c
c043e144:	e59f60b4 	ldr	r6, [pc, #180]	@ 0xc043e200
c043e148:	e1a05000 	mov	r5, r0
c043e14c:	e28d0004 	add	r0, sp, #4
c043e150:	e1a07001 	mov	r7, r1
c043e154:	e5963000 	ldr	r3, [r6]
c043e158:	e58d3024 	str	r3, [sp, #36]	@ 0x24
c043e15c:	ebffffce 	bl	0xc043e09c
c043e160:	e2504000 	subs	r4, r0, #0
c043e164:	0a000003 	beq	0xc043e178
c043e168:	e5dd3004 	ldrb	r3, [sp, #4]
c043e16c:	e3530085 	cmp	r3, #133	@ 0x85
c043e170:	0a000006 	beq	0xc043e190
c043e174:	e3e04000 	mvn	r4, #0
c043e178:	e59d2024 	ldr	r2, [sp, #36]	@ 0x24
c043e17c:	e1a00004 	mov	r0, r4
c043e180:	e5963000 	ldr	r3, [r6]
c043e184:	e1520003 	cmp	r2, r3
c043e188:	0a00001a 	beq	0xc043e1f8
c043e18c:	ebf36c06 	bl	0xc01191ac
c043e190:	e5dd3006 	ldrb	r3, [sp, #6]
c043e194:	e6ef5075 	uxtb	r5, r5
c043e198:	e3855080 	orr	r5, r5, #128	@ 0x80
c043e19c:	e1530005 	cmp	r3, r5
c043e1a0:	1afffff3 	bne	0xc043e174
c043e1a4:	e5dd2005 	ldrb	r2, [sp, #5]
c043e1a8:	e28d1004 	add	r1, sp, #4
c043e1ac:	e28d0002 	add	r0, sp, #2
c043e1b0:	e3a03000 	mov	r3, #0
c043e1b4:	e2822001 	add	r2, r2, #1
c043e1b8:	e1cd30b2 	strh	r3, [sp, #2]
c043e1bc:	ebffff36 	bl	0xc043de9c
c043e1c0:	e5dd4005 	ldrb	r4, [sp, #5]
c043e1c4:	e28d2028 	add	r2, sp, #40	@ 0x28
c043e1c8:	e5dd3002 	ldrb	r3, [sp, #2]
c043e1cc:	e0822004 	add	r2, r2, r4
c043e1d0:	e5522023 	ldrb	r2, [r2, #-35]	@ 0xffffffdd
c043e1d4:	e1cd30b2 	strh	r3, [sp, #2]
c043e1d8:	e1520003 	cmp	r2, r3
c043e1dc:	1affffe4 	bne	0xc043e174
c043e1e0:	e2444002 	sub	r4, r4, #2
c043e1e4:	e28d1007 	add	r1, sp, #7
c043e1e8:	e1a00007 	mov	r0, r7
c043e1ec:	e1a02004 	mov	r2, r4
c043e1f0:	eb0828ba 	bl	0xc06484e0
c043e1f4:	eaffffdf 	b	0xc043e178
c043e1f8:	e28dd02c 	add	sp, sp, #44	@ 0x2c
c043e1fc:	e8bd80f0 	pop	{r4, r5, r6, r7, pc}
c043e200:	c0a04e08 	adcgt	r4, r0, r8, lsl #28
c043e204:	e92d4030 	push	{r4, r5, lr}
c043e208:	e24dd02c 	sub	sp, sp, #44	@ 0x2c
c043e20c:	e59f507c 	ldr	r5, [pc, #124]	@ 0xc043e290
c043e210:	e1a04000 	mov	r4, r0
c043e214:	e3a02021 	mov	r2, #33	@ 0x21
c043e218:	e3a01000 	mov	r1, #0
c043e21c:	e28d0003 	add	r0, sp, #3
c043e220:	e5953000 	ldr	r3, [r5]
c043e224:	e58d3024 	str	r3, [sp, #36]	@ 0x24
c043e228:	eb082a4c 	bl	0xc0648b60
c043e22c:	e2842020 	add	r2, r4, #32
c043e230:	e1a00004 	mov	r0, r4
c043e234:	e28d3004 	add	r3, sp, #4
c043e238:	e4901004 	ldr	r1, [r0], #4
c043e23c:	e1500002 	cmp	r0, r2
c043e240:	e4831004 	str	r1, [r3], #4
c043e244:	1afffffb 	bne	0xc043e238
c043e248:	e59f0044 	ldr	r0, [pc, #68]	@ 0xc043e294
c043e24c:	e3e0302f 	mvn	r3, #47	@ 0x2f
c043e250:	e28d2004 	add	r2, sp, #4
c043e254:	e5cd3003 	strb	r3, [sp, #3]
c043e258:	e3a01e11 	mov	r1, #272	@ 0x110
c043e25c:	e3a03020 	mov	r3, #32
c043e260:	e5900000 	ldr	r0, [r0]
c043e264:	ebfffdbc 	bl	0xc043d95c
c043e268:	e3500000 	cmp	r0, #0
c043e26c:	e59d2024 	ldr	r2, [sp, #36]	@ 0x24
c043e270:	e5953000 	ldr	r3, [r5]
c043e274:	d3a00000 	movle	r0, #0
c043e278:	c3a00001 	movgt	r0, #1
c043e27c:	e1520003 	cmp	r2, r3
c043e280:	0a000000 	beq	0xc043e288
c043e284:	ebf36bc8 	bl	0xc01191ac
c043e288:	e28dd02c 	add	sp, sp, #44	@ 0x2c
c043e28c:	e8bd8030 	pop	{r4, r5, pc}
c043e290:	c0a04e08 	adcgt	r4, r0, r8, lsl #28
c043e294:	c0a5d4d0 	ldrdgt	sp, [r5], r0	@ <UNPREDICTABLE>
c043e298:	e92d4ff0 	push	{r4, r5, r6, r7, r8, r9, sl, fp, lr}
c043e29c:	e1a06003 	mov	r6, r3
c043e2a0:	e59f315c 	ldr	r3, [pc, #348]	@ 0xc043e404
c043e2a4:	e1a0a002 	mov	sl, r2
c043e2a8:	e24dd054 	sub	sp, sp, #84	@ 0x54
c043e2ac:	e3a05000 	mov	r5, #0
c043e2b0:	e1a07000 	mov	r7, r0
c043e2b4:	e1a09001 	mov	r9, r1
c043e2b8:	e5932000 	ldr	r2, [r3]
c043e2bc:	e1a04005 	mov	r4, r5
c043e2c0:	e3a0b005 	mov	fp, #5
c043e2c4:	e1a08005 	mov	r8, r5
c043e2c8:	e58d3004 	str	r3, [sp, #4]
c043e2cc:	e58d204c 	str	r2, [sp, #76]	@ 0x4c
c043e2d0:	e3a03002 	mov	r3, #2
c043e2d4:	e5cd300c 	strb	r3, [sp, #12]
c043e2d8:	e0843009 	add	r3, r4, r9
c043e2dc:	e3560018 	cmp	r6, #24
c043e2e0:	e28d100c 	add	r1, sp, #12
c043e2e4:	e28d0008 	add	r0, sp, #8
c043e2e8:	e1a02443 	asr	r2, r3, #8
c043e2ec:	e5cd200f 	strb	r2, [sp, #15]
c043e2f0:	e3a02006 	mov	r2, #6
c043e2f4:	e5cd3010 	strb	r3, [sp, #16]
c043e2f8:	e5cdb00d 	strb	fp, [sp, #13]
c043e2fc:	b1a03006 	movlt	r3, r6
c043e300:	a3a03018 	movge	r3, #24
c043e304:	e5cd700e 	strb	r7, [sp, #14]
c043e308:	e5cd3011 	strb	r3, [sp, #17]
c043e30c:	e1cd80b8 	strh	r8, [sp, #8]
c043e310:	ebfffee1 	bl	0xc043de9c
c043e314:	e1dd30b8 	ldrh	r3, [sp, #8]
c043e318:	e28d000c 	add	r0, sp, #12
c043e31c:	e5cd3012 	strb	r3, [sp, #18]
c043e320:	ebffffb7 	bl	0xc043e204
c043e324:	e3500000 	cmp	r0, #0
c043e328:	0a00002e 	beq	0xc043e3e8
c043e32c:	ebffff19 	bl	0xc043df98
c043e330:	e3500000 	cmp	r0, #0
c043e334:	0a00002b 	beq	0xc043e3e8
c043e338:	ebffff2f 	bl	0xc043dffc
c043e33c:	e3500000 	cmp	r0, #0
c043e340:	0a000028 	beq	0xc043e3e8
c043e344:	e28d002c 	add	r0, sp, #44	@ 0x2c
c043e348:	ebffff53 	bl	0xc043e09c
c043e34c:	e3500000 	cmp	r0, #0
c043e350:	0a000024 	beq	0xc043e3e8
c043e354:	e5dd302c 	ldrb	r3, [sp, #44]	@ 0x2c
c043e358:	e3530082 	cmp	r3, #130	@ 0x82
c043e35c:	1a000021 	bne	0xc043e3e8
c043e360:	e5dd302e 	ldrb	r3, [sp, #46]	@ 0x2e
c043e364:	e1570003 	cmp	r7, r3
c043e368:	1a00001e 	bne	0xc043e3e8
c043e36c:	e5dd202d 	ldrb	r2, [sp, #45]	@ 0x2d
c043e370:	e28d102c 	add	r1, sp, #44	@ 0x2c
c043e374:	e28d000a 	add	r0, sp, #10
c043e378:	e1cd80ba 	strh	r8, [sp, #10]
c043e37c:	e2822001 	add	r2, r2, #1
c043e380:	ebfffec5 	bl	0xc043de9c
c043e384:	e5dd302d 	ldrb	r3, [sp, #45]	@ 0x2d
c043e388:	e28d1050 	add	r1, sp, #80	@ 0x50
c043e38c:	e5dd200a 	ldrb	r2, [sp, #10]
c043e390:	e0813003 	add	r3, r1, r3
c043e394:	e5533023 	ldrb	r3, [r3, #-35]	@ 0xffffffdd
c043e398:	e1cd20ba 	strh	r2, [sp, #10]
c043e39c:	e1530002 	cmp	r3, r2
c043e3a0:	1a000010 	bne	0xc043e3e8
c043e3a4:	e5dd502f 	ldrb	r5, [sp, #47]	@ 0x2f
c043e3a8:	e08a0004 	add	r0, sl, r4
c043e3ac:	e28d1030 	add	r1, sp, #48	@ 0x30
c043e3b0:	e0466005 	sub	r6, r6, r5
c043e3b4:	e0844005 	add	r4, r4, r5
c043e3b8:	e1a02005 	mov	r2, r5
c043e3bc:	e3a05000 	mov	r5, #0
c043e3c0:	eb082846 	bl	0xc06484e0
c043e3c4:	e3560000 	cmp	r6, #0
c043e3c8:	caffffc0 	bgt	0xc043e2d0
c043e3cc:	e59d3004 	ldr	r3, [sp, #4]
c043e3d0:	e1a00004 	mov	r0, r4
c043e3d4:	e59d204c 	ldr	r2, [sp, #76]	@ 0x4c
c043e3d8:	e5933000 	ldr	r3, [r3]
c043e3dc:	e1520003 	cmp	r2, r3
c043e3e0:	0a000005 	beq	0xc043e3fc
c043e3e4:	ebf36b70 	bl	0xc01191ac
c043e3e8:	e2855001 	add	r5, r5, #1
c043e3ec:	e355000a 	cmp	r5, #10
c043e3f0:	dafffff3 	ble	0xc043e3c4
c043e3f4:	e3e04004 	mvn	r4, #4
c043e3f8:	eafffff3 	b	0xc043e3cc
c043e3fc:	e28dd054 	add	sp, sp, #84	@ 0x54
c043e400:	e8bd8ff0 	pop	{r4, r5, r6, r7, r8, r9, sl, fp, pc}
c043e404:	c0a04e08 	adcgt	r4, r0, r8, lsl #28
c043e408:	e92d4ff0 	push	{r4, r5, r6, r7, r8, r9, sl, fp, lr}
c043e40c:	e1a05003 	mov	r5, r3
c043e410:	e59f3114 	ldr	r3, [pc, #276]	@ 0xc043e52c
c043e414:	e1a0b002 	mov	fp, r2
c043e418:	e24dd034 	sub	sp, sp, #52	@ 0x34
c043e41c:	e3a06000 	mov	r6, #0
c043e420:	e1a09000 	mov	r9, r0
c043e424:	e1a0a001 	mov	sl, r1
c043e428:	e5932000 	ldr	r2, [r3]
c043e42c:	e1a04006 	mov	r4, r6
c043e430:	e58d3000 	str	r3, [sp]
c043e434:	e58d202c 	str	r2, [sp, #44]	@ 0x2c
c043e438:	e3550018 	cmp	r5, #24
c043e43c:	e084100a 	add	r1, r4, sl
c043e440:	e3a03001 	mov	r3, #1
c043e444:	e5cd300c 	strb	r3, [sp, #12]
c043e448:	b1a07005 	movlt	r7, r5
c043e44c:	a3a07018 	movge	r7, #24
c043e450:	e6ef2077 	uxtb	r2, r7
c043e454:	e1a00441 	asr	r0, r1, #8
c043e458:	e2823005 	add	r3, r2, #5
c043e45c:	e5cd000f 	strb	r0, [sp, #15]
c043e460:	e5cd1010 	strb	r1, [sp, #16]
c043e464:	e28d0012 	add	r0, sp, #18
c043e468:	e5cd2011 	strb	r2, [sp, #17]
c043e46c:	e08b1004 	add	r1, fp, r4
c043e470:	e1a02007 	mov	r2, r7
c043e474:	e6ef3073 	uxtb	r3, r3
c043e478:	e5cd900e 	strb	r9, [sp, #14]
c043e47c:	e3a08000 	mov	r8, #0
c043e480:	e5cd300d 	strb	r3, [sp, #13]
c043e484:	e58d3004 	str	r3, [sp, #4]
c043e488:	eb082814 	bl	0xc06484e0
c043e48c:	e28d0030 	add	r0, sp, #48	@ 0x30
c043e490:	e59d3004 	ldr	r3, [sp, #4]
c043e494:	e28d100c 	add	r1, sp, #12
c043e498:	e2832001 	add	r2, r3, #1
c043e49c:	e16082b6 	strh	r8, [r0, #-38]!	@ 0xffffffda
c043e4a0:	ebfffe7d 	bl	0xc043de9c
c043e4a4:	e5dd300d 	ldrb	r3, [sp, #13]
c043e4a8:	e28d2030 	add	r2, sp, #48	@ 0x30
c043e4ac:	e28d000c 	add	r0, sp, #12
c043e4b0:	e0823003 	add	r3, r2, r3
c043e4b4:	e1dd20ba 	ldrh	r2, [sp, #10]
c043e4b8:	e5432023 	strb	r2, [r3, #-35]	@ 0xffffffdd
c043e4bc:	ebffff50 	bl	0xc043e204
c043e4c0:	e1500008 	cmp	r0, r8
c043e4c4:	1a000004 	bne	0xc043e4dc
c043e4c8:	e2866001 	add	r6, r6, #1
c043e4cc:	e356000a 	cmp	r6, #10
c043e4d0:	da00000a 	ble	0xc043e500
c043e4d4:	e3e04004 	mvn	r4, #4
c043e4d8:	ea00000a 	b	0xc043e508
c043e4dc:	ebfffead 	bl	0xc043df98
c043e4e0:	e3500000 	cmp	r0, #0
c043e4e4:	0afffff7 	beq	0xc043e4c8
c043e4e8:	ebfffec3 	bl	0xc043dffc
c043e4ec:	e3500000 	cmp	r0, #0
c043e4f0:	0afffff4 	beq	0xc043e4c8
c043e4f4:	e0455007 	sub	r5, r5, r7
c043e4f8:	e0844007 	add	r4, r4, r7
c043e4fc:	e1a06008 	mov	r6, r8
c043e500:	e3550000 	cmp	r5, #0
c043e504:	caffffcb 	bgt	0xc043e438
c043e508:	e59d3000 	ldr	r3, [sp]
c043e50c:	e1a00004 	mov	r0, r4
c043e510:	e59d202c 	ldr	r2, [sp, #44]	@ 0x2c
c043e514:	e5933000 	ldr	r3, [r3]
c043e518:	e1520003 	cmp	r2, r3
c043e51c:	0a000000 	beq	0xc043e524
c043e520:	ebf36b21 	bl	0xc01191ac
c043e524:	e28dd034 	add	sp, sp, #52	@ 0x34
c043e528:	e8bd8ff0 	pop	{r4, r5, r6, r7, r8, r9, sl, fp, pc}
c043e52c:	c0a04e08 	adcgt	r4, r0, r8, lsl #28
c043e530:	e92d40f0 	push	{r4, r5, r6, r7, lr}
c043e534:	e352001c 	cmp	r2, #28
c043e538:	e59f40c0 	ldr	r4, [pc, #192]	@ 0xc043e600
c043e53c:	e1a07003 	mov	r7, r3
c043e540:	e24dd02c 	sub	sp, sp, #44	@ 0x2c
c043e544:	a3a0201c 	movge	r2, #28
c043e548:	e2825002 	add	r5, r2, #2
c043e54c:	e1a06000 	mov	r6, r0
c043e550:	e5943000 	ldr	r3, [r4]
c043e554:	e6ef5075 	uxtb	r5, r5
c043e558:	e5cd5005 	strb	r5, [sp, #5]
c043e55c:	e58d3024 	str	r3, [sp, #36]	@ 0x24
c043e560:	e3a03005 	mov	r3, #5
c043e564:	e5cd3004 	strb	r3, [sp, #4]
c043e568:	e1e03c80 	mvn	r3, r0, lsl #25
c043e56c:	e28d0007 	add	r0, sp, #7
c043e570:	e1e03ca3 	mvn	r3, r3, lsr #25
c043e574:	e5cd3006 	strb	r3, [sp, #6]
c043e578:	eb0827d8 	bl	0xc06484e0
c043e57c:	e3a03000 	mov	r3, #0
c043e580:	e2852001 	add	r2, r5, #1
c043e584:	e28d0028 	add	r0, sp, #40	@ 0x28
c043e588:	e28d1004 	add	r1, sp, #4
c043e58c:	e16032b6 	strh	r3, [r0, #-38]!	@ 0xffffffda
c043e590:	ebfffe41 	bl	0xc043de9c
c043e594:	e5dd3005 	ldrb	r3, [sp, #5]
c043e598:	e28d2028 	add	r2, sp, #40	@ 0x28
c043e59c:	e28d0004 	add	r0, sp, #4
c043e5a0:	e0823003 	add	r3, r2, r3
c043e5a4:	e1dd20b2 	ldrh	r2, [sp, #2]
c043e5a8:	e5432023 	strb	r2, [r3, #-35]	@ 0xffffffdd
c043e5ac:	ebffff14 	bl	0xc043e204
c043e5b0:	e3500000 	cmp	r0, #0
c043e5b4:	1a000005 	bne	0xc043e5d0
c043e5b8:	e3a00000 	mov	r0, #0
c043e5bc:	e59d2024 	ldr	r2, [sp, #36]	@ 0x24
c043e5c0:	e5943000 	ldr	r3, [r4]
c043e5c4:	e1520003 	cmp	r2, r3
c043e5c8:	0a00000a 	beq	0xc043e5f8
c043e5cc:	ebf36af6 	bl	0xc01191ac
c043e5d0:	ebfffe70 	bl	0xc043df98
c043e5d4:	e3500000 	cmp	r0, #0
c043e5d8:	0afffff6 	beq	0xc043e5b8
c043e5dc:	ebfffe86 	bl	0xc043dffc
c043e5e0:	e3500000 	cmp	r0, #0
c043e5e4:	0afffff3 	beq	0xc043e5b8
c043e5e8:	e1a01007 	mov	r1, r7
c043e5ec:	e1a00006 	mov	r0, r6
c043e5f0:	ebfffed1 	bl	0xc043e13c
c043e5f4:	eafffff0 	b	0xc043e5bc
c043e5f8:	e28dd02c 	add	sp, sp, #44	@ 0x2c
c043e5fc:	e8bd80f0 	pop	{r4, r5, r6, r7, pc}
c043e600:	c0a04e08 	adcgt	r4, r0, r8, lsl #28
c043e604:	e92d4070 	push	{r4, r5, r6, lr}
c043e608:	e352001c 	cmp	r2, #28
c043e60c:	e59f40b0 	ldr	r4, [pc, #176]	@ 0xc043e6c4
c043e610:	e24dd028 	sub	sp, sp, #40	@ 0x28
c043e614:	b1a05002 	movlt	r5, r2
c043e618:	a3a0501c 	movge	r5, #28
c043e61c:	e2856002 	add	r6, r5, #2
c043e620:	e5cd0006 	strb	r0, [sp, #6]
c043e624:	e5943000 	ldr	r3, [r4]
c043e628:	e1a02005 	mov	r2, r5
c043e62c:	e28d0007 	add	r0, sp, #7
c043e630:	e6ef6076 	uxtb	r6, r6
c043e634:	e5cd6005 	strb	r6, [sp, #5]
c043e638:	e58d3024 	str	r3, [sp, #36]	@ 0x24
c043e63c:	e3a03005 	mov	r3, #5
c043e640:	e5cd3004 	strb	r3, [sp, #4]
c043e644:	eb0827a5 	bl	0xc06484e0
c043e648:	e3a03000 	mov	r3, #0
c043e64c:	e2862001 	add	r2, r6, #1
c043e650:	e28d0028 	add	r0, sp, #40	@ 0x28
c043e654:	e28d1004 	add	r1, sp, #4
c043e658:	e16032b6 	strh	r3, [r0, #-38]!	@ 0xffffffda
c043e65c:	ebfffe0e 	bl	0xc043de9c
c043e660:	e5dd3005 	ldrb	r3, [sp, #5]
c043e664:	e28d2028 	add	r2, sp, #40	@ 0x28
c043e668:	e28d0004 	add	r0, sp, #4
c043e66c:	e0823003 	add	r3, r2, r3
c043e670:	e1dd20b2 	ldrh	r2, [sp, #2]
c043e674:	e5432023 	strb	r2, [r3, #-35]	@ 0xffffffdd
c043e678:	ebfffee1 	bl	0xc043e204
c043e67c:	e3500000 	cmp	r0, #0
c043e680:	1a000006 	bne	0xc043e6a0
c043e684:	e3a05000 	mov	r5, #0
c043e688:	e59d2024 	ldr	r2, [sp, #36]	@ 0x24
c043e68c:	e1a00005 	mov	r0, r5
c043e690:	e5943000 	ldr	r3, [r4]
c043e694:	e1520003 	cmp	r2, r3
c043e698:	0a000007 	beq	0xc043e6bc
c043e69c:	ebf36ac2 	bl	0xc01191ac
c043e6a0:	ebfffe3c 	bl	0xc043df98
c043e6a4:	e3500000 	cmp	r0, #0
c043e6a8:	0afffff5 	beq	0xc043e684
c043e6ac:	ebfffe52 	bl	0xc043dffc
c043e6b0:	e3500000 	cmp	r0, #0
c043e6b4:	1afffff3 	bne	0xc043e688
c043e6b8:	eafffff1 	b	0xc043e684
c043e6bc:	e28dd028 	add	sp, sp, #40	@ 0x28
c043e6c0:	e8bd8070 	pop	{r4, r5, r6, pc}
c043e6c4:	c0a04e08 	adcgt	r4, r0, r8, lsl #28
c043e6c8:	e92d41f0 	push	{r4, r5, r6, r7, r8, lr}
c043e6cc:	e24dd048 	sub	sp, sp, #72	@ 0x48
c043e6d0:	e59f8144 	ldr	r8, [pc, #324]	@ 0xc043e81c
c043e6d4:	e1a07000 	mov	r7, r0
c043e6d8:	e1a05002 	mov	r5, r2
c043e6dc:	e1a06001 	mov	r6, r1
c043e6e0:	e3a02020 	mov	r2, #32
c043e6e4:	e3a01000 	mov	r1, #0
c043e6e8:	e5983000 	ldr	r3, [r8]
c043e6ec:	e28d0004 	add	r0, sp, #4
c043e6f0:	e58d3044 	str	r3, [sp, #68]	@ 0x44
c043e6f4:	eb082919 	bl	0xc0648b60
c043e6f8:	e3a02020 	mov	r2, #32
c043e6fc:	e3a01000 	mov	r1, #0
c043e700:	e28d0024 	add	r0, sp, #36	@ 0x24
c043e704:	eb082915 	bl	0xc0648b60
c043e708:	e2852002 	add	r2, r5, #2
c043e70c:	e3e0007f 	mvn	r0, #127	@ 0x7f
c043e710:	e1800307 	orr	r0, r0, r7, lsl #6
c043e714:	e6ef2072 	uxtb	r2, r2
c043e718:	e3a07000 	mov	r7, #0
c043e71c:	e3a03007 	mov	r3, #7
c043e720:	e5cd0006 	strb	r0, [sp, #6]
c043e724:	e28d0048 	add	r0, sp, #72	@ 0x48
c043e728:	e5cd2005 	strb	r2, [sp, #5]
c043e72c:	e28d1004 	add	r1, sp, #4
c043e730:	e16074b8 	strh	r7, [r0, #-72]!	@ 0xffffffb8
c043e734:	e2822001 	add	r2, r2, #1
c043e738:	e5cd3004 	strb	r3, [sp, #4]
c043e73c:	ebfffdd6 	bl	0xc043de9c
c043e740:	e5dd3005 	ldrb	r3, [sp, #5]
c043e744:	e28d2048 	add	r2, sp, #72	@ 0x48
c043e748:	e28d0004 	add	r0, sp, #4
c043e74c:	e0823003 	add	r3, r2, r3
c043e750:	e1dd20b0 	ldrh	r2, [sp]
c043e754:	e5432043 	strb	r2, [r3, #-67]	@ 0xffffffbd
c043e758:	ebfffea9 	bl	0xc043e204
c043e75c:	e1500007 	cmp	r0, r7
c043e760:	1a000005 	bne	0xc043e77c
c043e764:	e3a00000 	mov	r0, #0
c043e768:	e59d2044 	ldr	r2, [sp, #68]	@ 0x44
c043e76c:	e5983000 	ldr	r3, [r8]
c043e770:	e1520003 	cmp	r2, r3
c043e774:	0a000026 	beq	0xc043e814
c043e778:	ebf36a8b 	bl	0xc01191ac
c043e77c:	ebfffe05 	bl	0xc043df98
c043e780:	e3500000 	cmp	r0, #0
c043e784:	0afffff6 	beq	0xc043e764
c043e788:	ebfffe1b 	bl	0xc043dffc
c043e78c:	e3500000 	cmp	r0, #0
c043e790:	0afffff3 	beq	0xc043e764
c043e794:	e28d0024 	add	r0, sp, #36	@ 0x24
c043e798:	ebfffe3f 	bl	0xc043e09c
c043e79c:	e3500000 	cmp	r0, #0
c043e7a0:	0affffef 	beq	0xc043e764
c043e7a4:	e5dd3024 	ldrb	r3, [sp, #36]	@ 0x24
c043e7a8:	e3530087 	cmp	r3, #135	@ 0x87
c043e7ac:	0a000001 	beq	0xc043e7b8
c043e7b0:	e3e00000 	mvn	r0, #0
c043e7b4:	eaffffeb 	b	0xc043e768
c043e7b8:	e1dd32d6 	ldrsb	r3, [sp, #38]	@ 0x26
c043e7bc:	e3530000 	cmp	r3, #0
c043e7c0:	aafffffa 	bge	0xc043e7b0
c043e7c4:	e5dd2025 	ldrb	r2, [sp, #37]	@ 0x25
c043e7c8:	e28d1024 	add	r1, sp, #36	@ 0x24
c043e7cc:	e28d0002 	add	r0, sp, #2
c043e7d0:	e1cd70b2 	strh	r7, [sp, #2]
c043e7d4:	e2822001 	add	r2, r2, #1
c043e7d8:	ebfffdaf 	bl	0xc043de9c
c043e7dc:	e5dd4025 	ldrb	r4, [sp, #37]	@ 0x25
c043e7e0:	e28d2048 	add	r2, sp, #72	@ 0x48
c043e7e4:	e5dd3002 	ldrb	r3, [sp, #2]
c043e7e8:	e0822004 	add	r2, r2, r4
c043e7ec:	e5522023 	ldrb	r2, [r2, #-35]	@ 0xffffffdd
c043e7f0:	e1cd30b2 	strh	r3, [sp, #2]
c043e7f4:	e1520003 	cmp	r2, r3
c043e7f8:	1affffec 	bne	0xc043e7b0
c043e7fc:	e1a02005 	mov	r2, r5
c043e800:	e28d1027 	add	r1, sp, #39	@ 0x27
c043e804:	e1a00006 	mov	r0, r6
c043e808:	eb082734 	bl	0xc06484e0
c043e80c:	e2440002 	sub	r0, r4, #2
c043e810:	eaffffd4 	b	0xc043e768
c043e814:	e28dd048 	add	sp, sp, #72	@ 0x48
c043e818:	e8bd81f0 	pop	{r4, r5, r6, r7, r8, pc}
c043e81c:	c0a04e08 	adcgt	r4, r0, r8, lsl #28
c043e820:	e92d41f0 	push	{r4, r5, r6, r7, r8, lr}
c043e824:	e24dd028 	sub	sp, sp, #40	@ 0x28
c043e828:	e59f50d0 	ldr	r5, [pc, #208]	@ 0xc043e900
c043e82c:	e1a04002 	mov	r4, r2
c043e830:	e1a07000 	mov	r7, r0
c043e834:	e1a08001 	mov	r8, r1
c043e838:	e3a02020 	mov	r2, #32
c043e83c:	e3a01000 	mov	r1, #0
c043e840:	e5953000 	ldr	r3, [r5]
c043e844:	e28d0004 	add	r0, sp, #4
c043e848:	e1a07307 	lsl	r7, r7, #6
c043e84c:	e58d3024 	str	r3, [sp, #36]	@ 0x24
c043e850:	eb0828c2 	bl	0xc0648b60
c043e854:	e354001c 	cmp	r4, #28
c043e858:	e3a03007 	mov	r3, #7
c043e85c:	e1a01008 	mov	r1, r8
c043e860:	a3a0401c 	movge	r4, #28
c043e864:	e2846002 	add	r6, r4, #2
c043e868:	e1a02004 	mov	r2, r4
c043e86c:	e6ef6076 	uxtb	r6, r6
c043e870:	e08d0003 	add	r0, sp, r3
c043e874:	e5cd3004 	strb	r3, [sp, #4]
c043e878:	e5cd6005 	strb	r6, [sp, #5]
c043e87c:	e5cd7006 	strb	r7, [sp, #6]
c043e880:	eb082716 	bl	0xc06484e0
c043e884:	e3a03000 	mov	r3, #0
c043e888:	e2862001 	add	r2, r6, #1
c043e88c:	e28d0028 	add	r0, sp, #40	@ 0x28
c043e890:	e28d1004 	add	r1, sp, #4
c043e894:	e16032b6 	strh	r3, [r0, #-38]!	@ 0xffffffda
c043e898:	ebfffd7f 	bl	0xc043de9c
c043e89c:	e5dd3005 	ldrb	r3, [sp, #5]
c043e8a0:	e28d2028 	add	r2, sp, #40	@ 0x28
c043e8a4:	e28d0004 	add	r0, sp, #4
c043e8a8:	e0823003 	add	r3, r2, r3
c043e8ac:	e1dd20b2 	ldrh	r2, [sp, #2]
c043e8b0:	e5432023 	strb	r2, [r3, #-35]	@ 0xffffffdd
c043e8b4:	ebfffe52 	bl	0xc043e204
c043e8b8:	e3500000 	cmp	r0, #0
c043e8bc:	1a000006 	bne	0xc043e8dc
c043e8c0:	e3a04000 	mov	r4, #0
c043e8c4:	e59d2024 	ldr	r2, [sp, #36]	@ 0x24
c043e8c8:	e1a00004 	mov	r0, r4
c043e8cc:	e5953000 	ldr	r3, [r5]
c043e8d0:	e1520003 	cmp	r2, r3
c043e8d4:	0a000007 	beq	0xc043e8f8
c043e8d8:	ebf36a33 	bl	0xc01191ac
c043e8dc:	ebfffdad 	bl	0xc043df98
c043e8e0:	e3500000 	cmp	r0, #0
c043e8e4:	0afffff5 	beq	0xc043e8c0
c043e8e8:	ebfffdc3 	bl	0xc043dffc
c043e8ec:	e3500000 	cmp	r0, #0
c043e8f0:	1afffff3 	bne	0xc043e8c4
c043e8f4:	eafffff1 	b	0xc043e8c0
c043e8f8:	e28dd028 	add	sp, sp, #40	@ 0x28
c043e8fc:	e8bd81f0 	pop	{r4, r5, r6, r7, r8, pc}
c043e900:	c0a04e08 	adcgt	r4, r0, r8, lsl #28
c043e904:	e92d4ff0 	push	{r4, r5, r6, r7, r8, r9, sl, fp, lr}
c043e908:	e24dd04c 	sub	sp, sp, #76	@ 0x4c
c043e90c:	e59f5120 	ldr	r5, [pc, #288]	@ 0xc043ea34
c043e910:	e1a07000 	mov	r7, r0
c043e914:	e1a09001 	mov	r9, r1
c043e918:	e1a04002 	mov	r4, r2
c043e91c:	e3a0600b 	mov	r6, #11
c043e920:	e3a0a004 	mov	sl, #4
c043e924:	e5953000 	ldr	r3, [r5]
c043e928:	e3a0b002 	mov	fp, #2
c043e92c:	e3a08000 	mov	r8, #0
c043e930:	e58d3044 	str	r3, [sp, #68]	@ 0x44
c043e934:	e3a02003 	mov	r2, #3
c043e938:	e28d1004 	add	r1, sp, #4
c043e93c:	e1a0000d 	mov	r0, sp
c043e940:	e5cda004 	strb	sl, [sp, #4]
c043e944:	e5cdb005 	strb	fp, [sp, #5]
c043e948:	e5cd7006 	strb	r7, [sp, #6]
c043e94c:	e1cd80b0 	strh	r8, [sp]
c043e950:	ebfffd51 	bl	0xc043de9c
c043e954:	e1dd30b0 	ldrh	r3, [sp]
c043e958:	e28d0004 	add	r0, sp, #4
c043e95c:	e5cd3007 	strb	r3, [sp, #7]
c043e960:	ebfffe27 	bl	0xc043e204
c043e964:	e3500000 	cmp	r0, #0
c043e968:	0a000027 	beq	0xc043ea0c
c043e96c:	ebfffd89 	bl	0xc043df98
c043e970:	e3500000 	cmp	r0, #0
c043e974:	0a000024 	beq	0xc043ea0c
c043e978:	ebfffd9f 	bl	0xc043dffc
c043e97c:	e3500000 	cmp	r0, #0
c043e980:	0a000021 	beq	0xc043ea0c
c043e984:	e28d0024 	add	r0, sp, #36	@ 0x24
c043e988:	ebfffdc3 	bl	0xc043e09c
c043e98c:	e3500000 	cmp	r0, #0
c043e990:	0a00001d 	beq	0xc043ea0c
c043e994:	e5dd3024 	ldrb	r3, [sp, #36]	@ 0x24
c043e998:	e3530084 	cmp	r3, #132	@ 0x84
c043e99c:	1a00001a 	bne	0xc043ea0c
c043e9a0:	e5dd3026 	ldrb	r3, [sp, #38]	@ 0x26
c043e9a4:	e1570003 	cmp	r7, r3
c043e9a8:	1a000017 	bne	0xc043ea0c
c043e9ac:	e5dd2025 	ldrb	r2, [sp, #37]	@ 0x25
c043e9b0:	e28d1024 	add	r1, sp, #36	@ 0x24
c043e9b4:	e28d0002 	add	r0, sp, #2
c043e9b8:	e1cd80b2 	strh	r8, [sp, #2]
c043e9bc:	e2822001 	add	r2, r2, #1
c043e9c0:	ebfffd35 	bl	0xc043de9c
c043e9c4:	e5dd3025 	ldrb	r3, [sp, #37]	@ 0x25
c043e9c8:	e28d1048 	add	r1, sp, #72	@ 0x48
c043e9cc:	e5dd2002 	ldrb	r2, [sp, #2]
c043e9d0:	e0813003 	add	r3, r1, r3
c043e9d4:	e5533023 	ldrb	r3, [r3, #-35]	@ 0xffffffdd
c043e9d8:	e1cd20b2 	strh	r2, [sp, #2]
c043e9dc:	e1530002 	cmp	r3, r2
c043e9e0:	1a000009 	bne	0xc043ea0c
c043e9e4:	e1a02004 	mov	r2, r4
c043e9e8:	e28d1026 	add	r1, sp, #38	@ 0x26
c043e9ec:	e1a00009 	mov	r0, r9
c043e9f0:	eb0826ba 	bl	0xc06484e0
c043e9f4:	e59d2044 	ldr	r2, [sp, #68]	@ 0x44
c043e9f8:	e1a00004 	mov	r0, r4
c043e9fc:	e5953000 	ldr	r3, [r5]
c043ea00:	e1520003 	cmp	r2, r3
c043ea04:	0a000008 	beq	0xc043ea2c
c043ea08:	ebf369e7 	bl	0xc01191ac
c043ea0c:	e2566001 	subs	r6, r6, #1
c043ea10:	0a000003 	beq	0xc043ea24
c043ea14:	e3540000 	cmp	r4, #0
c043ea18:	caffffc5 	bgt	0xc043e934
c043ea1c:	e3a04000 	mov	r4, #0
c043ea20:	eafffff3 	b	0xc043e9f4
c043ea24:	e3e04004 	mvn	r4, #4
c043ea28:	eafffff1 	b	0xc043e9f4
c043ea2c:	e28dd04c 	add	sp, sp, #76	@ 0x4c
c043ea30:	e8bd8ff0 	pop	{r4, r5, r6, r7, r8, r9, sl, fp, pc}
c043ea34:	c0a04e08 	adcgt	r4, r0, r8, lsl #28
c043ea38:	e92d4030 	push	{r4, r5, lr}
c043ea3c:	e24dd01c 	sub	sp, sp, #28
c043ea40:	e59f5064 	ldr	r5, [pc, #100]	@ 0xc043eaac
c043ea44:	e1a04000 	mov	r4, r0
c043ea48:	e3a02012 	mov	r2, #18
c043ea4c:	e28d1002 	add	r1, sp, #2
c043ea50:	e3a00002 	mov	r0, #2
c043ea54:	e5953000 	ldr	r3, [r5]
c043ea58:	e58d3014 	str	r3, [sp, #20]
c043ea5c:	ebffffa8 	bl	0xc043e904
c043ea60:	e5dd3004 	ldrb	r3, [sp, #4]
c043ea64:	e59d2014 	ldr	r2, [sp, #20]
c043ea68:	e5c43024 	strb	r3, [r4, #36]	@ 0x24
c043ea6c:	e5dd3005 	ldrb	r3, [sp, #5]
c043ea70:	e5c43025 	strb	r3, [r4, #37]	@ 0x25
c043ea74:	e5dd3006 	ldrb	r3, [sp, #6]
c043ea78:	e5c43026 	strb	r3, [r4, #38]	@ 0x26
c043ea7c:	e5dd3007 	ldrb	r3, [sp, #7]
c043ea80:	e7e331d3 	ubfx	r3, r3, #3, #4
c043ea84:	e5c43027 	strb	r3, [r4, #39]	@ 0x27
c043ea88:	e5dd300f 	ldrb	r3, [sp, #15]
c043ea8c:	e5c4302a 	strb	r3, [r4, #42]	@ 0x2a
c043ea90:	e5953000 	ldr	r3, [r5]
c043ea94:	e1520003 	cmp	r2, r3
c043ea98:	0a000000 	beq	0xc043eaa0
c043ea9c:	ebf369c2 	bl	0xc01191ac
c043eaa0:	e3a00000 	mov	r0, #0
c043eaa4:	e28dd01c 	add	sp, sp, #28
c043eaa8:	e8bd8030 	pop	{r4, r5, pc}
c043eaac:	c0a04e08 	adcgt	r4, r0, r8, lsl #28
c043eab0:	e92d4010 	push	{r4, lr}
c043eab4:	e1a04000 	mov	r4, r0
c043eab8:	ebfffbd4 	bl	0xc043da10
c043eabc:	e3500000 	cmp	r0, #0
c043eac0:	18bd8010 	popne	{r4, pc}
c043eac4:	e1a00004 	mov	r0, r4
c043eac8:	ebfffc38 	bl	0xc043dbb0
c043eacc:	e3500000 	cmp	r0, #0
c043ead0:	18bd8010 	popne	{r4, pc}
c043ead4:	e1a00004 	mov	r0, r4
c043ead8:	ebfffc14 	bl	0xc043db30
c043eadc:	e3500000 	cmp	r0, #0
c043eae0:	18bd8010 	popne	{r4, pc}
c043eae4:	e1a00004 	mov	r0, r4
c043eae8:	ebfffbe6 	bl	0xc043da88
c043eaec:	e3500000 	cmp	r0, #0
c043eaf0:	18bd8010 	popne	{r4, pc}
c043eaf4:	e1a00004 	mov	r0, r4
c043eaf8:	ebfffbf7 	bl	0xc043dadc
c043eafc:	e3500000 	cmp	r0, #0
c043eb00:	18bd8010 	popne	{r4, pc}
c043eb04:	e1a00004 	mov	r0, r4
c043eb08:	ebffffca 	bl	0xc043ea38
c043eb0c:	e3500000 	cmp	r0, #0
c043eb10:	18bd8010 	popne	{r4, pc}
c043eb14:	e1a00004 	mov	r0, r4
c043eb18:	e8bd4010 	pop	{r4, lr}
c043eb1c:	eafffc4d 	b	0xc043dc58
c043eb20:	e92d40f0 	push	{r4, r5, r6, r7, lr}
c043eb24:	e24dd044 	sub	sp, sp, #68	@ 0x44
c043eb28:	e59f4078 	ldr	r4, [pc, #120]	@ 0xc043eba8
c043eb2c:	e1a07000 	mov	r7, r0
c043eb30:	e1a05001 	mov	r5, r1
c043eb34:	e1a06002 	mov	r6, r2
c043eb38:	e3a01000 	mov	r1, #0
c043eb3c:	e3a0201e 	mov	r2, #30
c043eb40:	e5943000 	ldr	r3, [r4]
c043eb44:	e1a0000d 	mov	r0, sp
c043eb48:	e58d303c 	str	r3, [sp, #60]	@ 0x3c
c043eb4c:	eb082803 	bl	0xc0648b60
c043eb50:	e3a0201e 	mov	r2, #30
c043eb54:	e3a01000 	mov	r1, #0
c043eb58:	e08d0002 	add	r0, sp, r2
c043eb5c:	eb0827ff 	bl	0xc0648b60
c043eb60:	e3a02001 	mov	r2, #1
c043eb64:	e1a00002 	mov	r0, r2
c043eb68:	e1a0300d 	mov	r3, sp
c043eb6c:	e28d101e 	add	r1, sp, #30
c043eb70:	e5cd701e 	strb	r7, [sp, #30]
c043eb74:	ebfffe6d 	bl	0xc043e530
c043eb78:	e1a02006 	mov	r2, r6
c043eb7c:	e1a00005 	mov	r0, r5
c043eb80:	e28d1001 	add	r1, sp, #1
c043eb84:	eb082655 	bl	0xc06484e0
c043eb88:	e59d203c 	ldr	r2, [sp, #60]	@ 0x3c
c043eb8c:	e5943000 	ldr	r3, [r4]
c043eb90:	e1520003 	cmp	r2, r3
c043eb94:	0a000000 	beq	0xc043eb9c
c043eb98:	ebf36983 	bl	0xc01191ac
c043eb9c:	e3a00000 	mov	r0, #0
c043eba0:	e28dd044 	add	sp, sp, #68	@ 0x44
c043eba4:	e8bd80f0 	pop	{r4, r5, r6, r7, pc}
c043eba8:	c0a04e08 	adcgt	r4, r0, r8, lsl #28
c043ebac:	e92d40f0 	push	{r4, r5, r6, r7, lr}
c043ebb0:	e24dd02c 	sub	sp, sp, #44	@ 0x2c
c043ebb4:	e59f4060 	ldr	r4, [pc, #96]	@ 0xc043ec1c
c043ebb8:	e1a05002 	mov	r5, r2
c043ebbc:	e1a07000 	mov	r7, r0
c043ebc0:	e1a06001 	mov	r6, r1
c043ebc4:	e3a0201e 	mov	r2, #30
c043ebc8:	e3a01000 	mov	r1, #0
c043ebcc:	e5943000 	ldr	r3, [r4]
c043ebd0:	e28d0006 	add	r0, sp, #6
c043ebd4:	e58d3024 	str	r3, [sp, #36]	@ 0x24
c043ebd8:	eb0827e0 	bl	0xc0648b60
c043ebdc:	e1a02005 	mov	r2, r5
c043ebe0:	e1a01006 	mov	r1, r6
c043ebe4:	e28d0007 	add	r0, sp, #7
c043ebe8:	e5cd7006 	strb	r7, [sp, #6]
c043ebec:	eb08263b 	bl	0xc06484e0
c043ebf0:	e2852001 	add	r2, r5, #1
c043ebf4:	e3a00001 	mov	r0, #1
c043ebf8:	e28d1006 	add	r1, sp, #6
c043ebfc:	ebfffe80 	bl	0xc043e604
c043ec00:	e59d2024 	ldr	r2, [sp, #36]	@ 0x24
c043ec04:	e5943000 	ldr	r3, [r4]
c043ec08:	e1520003 	cmp	r2, r3
c043ec0c:	0a000000 	beq	0xc043ec14
c043ec10:	ebf36965 	bl	0xc01191ac
c043ec14:	e28dd02c 	add	sp, sp, #44	@ 0x2c
c043ec18:	e8bd80f0 	pop	{r4, r5, r6, r7, pc}
c043ec1c:	c0a04e08 	adcgt	r4, r0, r8, lsl #28
c043ec20:	e92d40f7 	push	{r0, r1, r2, r4, r5, r6, r7, lr}
c043ec24:	e3500008 	cmp	r0, #8
c043ec28:	e59f40c4 	ldr	r4, [pc, #196]	@ 0xc043ecf4
c043ec2c:	e5943000 	ldr	r3, [r4]
c043ec30:	e58d3004 	str	r3, [sp, #4]
c043ec34:	da000005 	ble	0xc043ec50
c043ec38:	e3e00015 	mvn	r0, #21
c043ec3c:	e59d2004 	ldr	r2, [sp, #4]
c043ec40:	e5943000 	ldr	r3, [r4]
c043ec44:	e1520003 	cmp	r2, r3
c043ec48:	0a000027 	beq	0xc043ecec
c043ec4c:	ebf36956 	bl	0xc01191ac
c043ec50:	e3500001 	cmp	r0, #1
c043ec54:	e1a06000 	mov	r6, r0
c043ec58:	e1a05001 	mov	r5, r1
c043ec5c:	1a000005 	bne	0xc043ec78
c043ec60:	e59f3090 	ldr	r3, [pc, #144]	@ 0xc043ecf8
c043ec64:	e5933000 	ldr	r3, [r3]
c043ec68:	e5c31190 	strb	r1, [r3, #400]	@ 0x190
c043ec6c:	e5c31193 	strb	r1, [r3, #403]	@ 0x193
c043ec70:	e3a00000 	mov	r0, #0
c043ec74:	eafffff0 	b	0xc043ec3c
c043ec78:	e3510000 	cmp	r1, #0
c043ec7c:	e28d1008 	add	r1, sp, #8
c043ec80:	e1a07002 	mov	r7, r2
c043ec84:	13a03080 	movne	r3, #128	@ 0x80
c043ec88:	03a03000 	moveq	r3, #0
c043ec8c:	e1833002 	orr	r3, r3, r2
c043ec90:	e3a02001 	mov	r2, #1
c043ec94:	e5613006 	strb	r3, [r1, #-6]!
c043ec98:	ebffffc3 	bl	0xc043ebac
c043ec9c:	e3500000 	cmp	r0, #0
c043eca0:	baffffe5 	blt	0xc043ec3c
c043eca4:	e3a0000a 	mov	r0, #10
c043eca8:	ebf4bb5c 	bl	0xc016da20
c043ecac:	e3a02001 	mov	r2, #1
c043ecb0:	e1a00006 	mov	r0, r6
c043ecb4:	e28d1003 	add	r1, sp, #3
c043ecb8:	ebffff98 	bl	0xc043eb20
c043ecbc:	e3500000 	cmp	r0, #0
c043ecc0:	baffffdd 	blt	0xc043ec3c
c043ecc4:	e5dd2003 	ldrb	r2, [sp, #3]
c043ecc8:	e5dd3002 	ldrb	r3, [sp, #2]
c043eccc:	e1520003 	cmp	r2, r3
c043ecd0:	1affffd8 	bne	0xc043ec38
c043ecd4:	e59f301c 	ldr	r3, [pc, #28]	@ 0xc043ecf8
c043ecd8:	e5930000 	ldr	r0, [r3]
c043ecdc:	e0800006 	add	r0, r0, r6
c043ece0:	e5c05192 	strb	r5, [r0, #402]	@ 0x192
c043ece4:	e5c071a6 	strb	r7, [r0, #422]	@ 0x1a6
c043ece8:	eaffffe0 	b	0xc043ec70
c043ecec:	e28dd00c 	add	sp, sp, #12
c043ecf0:	e8bd80f0 	pop	{r4, r5, r6, r7, pc}
c043ecf4:	c0a04e08 	adcgt	r4, r0, r8, lsl #28
c043ecf8:	c0a5d4d0 	ldrdgt	sp, [r5], r0	@ <UNPREDICTABLE>
c043ecfc:	e3a02000 	mov	r2, #0
c043ed00:	eaffffc6 	b	0xc043ec20
c043ed04:	e59f3068 	ldr	r3, [pc, #104]	@ 0xc043ed74
c043ed08:	e92d4073 	push	{r0, r1, r4, r5, r6, lr}
c043ed0c:	e3a04002 	mov	r4, #2
c043ed10:	e5932000 	ldr	r2, [r3]
c043ed14:	e1a05003 	mov	r5, r3
c043ed18:	e59f6058 	ldr	r6, [pc, #88]	@ 0xc043ed78
c043ed1c:	e58d2004 	str	r2, [sp, #4]
c043ed20:	e3a02001 	mov	r2, #1
c043ed24:	e28d1003 	add	r1, sp, #3
c043ed28:	e1a00004 	mov	r0, r4
c043ed2c:	ebffff7b 	bl	0xc043eb20
c043ed30:	e5963000 	ldr	r3, [r6]
c043ed34:	e0833004 	add	r3, r3, r4
c043ed38:	e2844001 	add	r4, r4, #1
c043ed3c:	e3540008 	cmp	r4, #8
c043ed40:	e5dd2003 	ldrb	r2, [sp, #3]
c043ed44:	e1a013a2 	lsr	r1, r2, #7
c043ed48:	e202207f 	and	r2, r2, #127	@ 0x7f
c043ed4c:	e5c31192 	strb	r1, [r3, #402]	@ 0x192
c043ed50:	e5c321a6 	strb	r2, [r3, #422]	@ 0x1a6
c043ed54:	1afffff1 	bne	0xc043ed20
c043ed58:	e59d2004 	ldr	r2, [sp, #4]
c043ed5c:	e5953000 	ldr	r3, [r5]
c043ed60:	e1520003 	cmp	r2, r3
c043ed64:	0a000000 	beq	0xc043ed6c
c043ed68:	ebf3690f 	bl	0xc01191ac
c043ed6c:	e28dd008 	add	sp, sp, #8
c043ed70:	e8bd8070 	pop	{r4, r5, r6, pc}
c043ed74:	c0a04e08 	adcgt	r4, r0, r8, lsl #28
c043ed78:	c0a5d4d0 	ldrdgt	sp, [r5], r0	@ <UNPREDICTABLE>
c043ed7c:	e92d4010 	push	{r4, lr}
c043ed80:	e59f4050 	ldr	r4, [pc, #80]	@ 0xc043edd8
c043ed84:	e5941000 	ldr	r1, [r4]
c043ed88:	e3510000 	cmp	r1, #0
c043ed8c:	08bd8010 	popeq	{r4, pc}
c043ed90:	e2811f6e 	add	r1, r1, #440	@ 0x1b8
c043ed94:	e3a02004 	mov	r2, #4
c043ed98:	e2811002 	add	r1, r1, #2
c043ed9c:	e3a00000 	mov	r0, #0
c043eda0:	ebfffe48 	bl	0xc043e6c8
c043eda4:	e5943000 	ldr	r3, [r4]
c043eda8:	e3500000 	cmp	r0, #0
c043edac:	a59321ba 	ldrge	r2, [r3, #442]	@ 0x1ba
c043edb0:	b3a02001 	movlt	r2, #1
c043edb4:	b5c321be 	strblt	r2, [r3, #446]	@ 0x1be
c043edb8:	b3e02070 	mvnlt	r2, #112	@ 0x70
c043edbc:	b5c321bf 	strblt	r2, [r3, #447]	@ 0x1bf
c043edc0:	b3e02000 	mvnlt	r2, #0
c043edc4:	a58321be 	strge	r2, [r3, #446]	@ 0x1be
c043edc8:	b5c321c0 	strblt	r2, [r3, #448]	@ 0x1c0
c043edcc:	b3a0200f 	movlt	r2, #15
c043edd0:	b5c321c1 	strblt	r2, [r3, #449]	@ 0x1c1
c043edd4:	e8bd8010 	pop	{r4, pc}
c043edd8:	c0a5d4d0 	ldrdgt	sp, [r5], r0	@ <UNPREDICTABLE>
c043eddc:	e59f301c 	ldr	r3, [pc, #28]	@ 0xc043ee00
c043ede0:	e5931000 	ldr	r1, [r3]
c043ede4:	e3510000 	cmp	r1, #0
c043ede8:	012fff1e 	bxeq	lr
c043edec:	e2811f6e 	add	r1, r1, #440	@ 0x1b8
c043edf0:	e3a02004 	mov	r2, #4
c043edf4:	e2811002 	add	r1, r1, #2
c043edf8:	e3a00000 	mov	r0, #0
c043edfc:	eafffe87 	b	0xc043e820
c043ee00:	c0a5d4d0 	ldrdgt	sp, [r5], r0	@ <UNPREDICTABLE>
c043ee04:	e92d4ff0 	push	{r4, r5, r6, r7, r8, r9, sl, fp, lr}
c043ee08:	e24dd02c 	sub	sp, sp, #44	@ 0x2c
c043ee0c:	e59fa288 	ldr	sl, [pc, #648]	@ 0xc043f09c
c043ee10:	e3a02005 	mov	r2, #5
c043ee14:	e59f4284 	ldr	r4, [pc, #644]	@ 0xc043f0a0
c043ee18:	e28d101a 	add	r1, sp, #26
c043ee1c:	e58d000c 	str	r0, [sp, #12]
c043ee20:	e3a05000 	mov	r5, #0
c043ee24:	e59a3000 	ldr	r3, [sl]
c043ee28:	e3a08053 	mov	r8, #83	@ 0x53
c043ee2c:	e5940000 	ldr	r0, [r4]
c043ee30:	e3a0b023 	mov	fp, #35	@ 0x23
c043ee34:	e58d501a 	str	r5, [sp, #26]
c043ee38:	e3a07003 	mov	r7, #3
c043ee3c:	e58d501e 	str	r5, [sp, #30]
c043ee40:	e3a06006 	mov	r6, #6
c043ee44:	e58d3024 	str	r3, [sp, #36]	@ 0x24
c043ee48:	e3a03071 	mov	r3, #113	@ 0x71
c043ee4c:	e1cd52b2 	strh	r5, [sp, #34]	@ 0x22
c043ee50:	e3e09003 	mvn	r9, #3
c043ee54:	e5cd301c 	strb	r3, [sp, #28]
c043ee58:	e3e0305a 	mvn	r3, #90	@ 0x5a
c043ee5c:	e5cd801b 	strb	r8, [sp, #27]
c043ee60:	e5cd301e 	strb	r3, [sp, #30]
c043ee64:	e3a0303c 	mov	r3, #60	@ 0x3c
c043ee68:	e5cdb01d 	strb	fp, [sp, #29]
c043ee6c:	e5cd301f 	strb	r3, [sp, #31]
c043ee70:	ebfffac4 	bl	0xc043d988
c043ee74:	e3a02005 	mov	r2, #5
c043ee78:	e5940000 	ldr	r0, [r4]
c043ee7c:	e3a03071 	mov	r3, #113	@ 0x71
c043ee80:	e28d101a 	add	r1, sp, #26
c043ee84:	e5cd301c 	strb	r3, [sp, #28]
c043ee88:	e5cd801b 	strb	r8, [sp, #27]
c043ee8c:	e3a03014 	mov	r3, #20
c043ee90:	e5cdb01d 	strb	fp, [sp, #29]
c043ee94:	e5cd301e 	strb	r3, [sp, #30]
c043ee98:	e3a03055 	mov	r3, #85	@ 0x55
c043ee9c:	e5cd301f 	strb	r3, [sp, #31]
c043eea0:	ebfffab8 	bl	0xc043d988
c043eea4:	e3a02009 	mov	r2, #9
c043eea8:	e5940000 	ldr	r0, [r4]
c043eeac:	e3a0305a 	mov	r3, #90	@ 0x5a
c043eeb0:	e28d101a 	add	r1, sp, #26
c043eeb4:	e5cd301e 	strb	r3, [sp, #30]
c043eeb8:	e5cd701b 	strb	r7, [sp, #27]
c043eebc:	e3e03062 	mvn	r3, #98	@ 0x62
c043eec0:	e5cd601c 	strb	r6, [sp, #28]
c043eec4:	e5cd301f 	strb	r3, [sp, #31]
c043eec8:	e3e03042 	mvn	r3, #66	@ 0x42
c043eecc:	e5cd901d 	strb	r9, [sp, #29]
c043eed0:	e5cd3020 	strb	r3, [sp, #32]
c043eed4:	e5cd5021 	strb	r5, [sp, #33]	@ 0x21
c043eed8:	e5cd5022 	strb	r5, [sp, #34]	@ 0x22
c043eedc:	e5cd5023 	strb	r5, [sp, #35]	@ 0x23
c043eee0:	ebfffaa8 	bl	0xc043d988
c043eee4:	e1500005 	cmp	r0, r5
c043eee8:	e58da010 	str	sl, [sp, #16]
c043eeec:	aa000006 	bge	0xc043ef0c
c043eef0:	e3e00000 	mvn	r0, #0
c043eef4:	e59d3010 	ldr	r3, [sp, #16]
c043eef8:	e59d2024 	ldr	r2, [sp, #36]	@ 0x24
c043eefc:	e5933000 	ldr	r3, [r3]
c043ef00:	e1520003 	cmp	r2, r3
c043ef04:	0a000062 	beq	0xc043f094
c043ef08:	ebf368a7 	bl	0xc01191ac
c043ef0c:	e3a02005 	mov	r2, #5
c043ef10:	e28d101a 	add	r1, sp, #26
c043ef14:	e5940000 	ldr	r0, [r4]
c043ef18:	e3e03001 	mvn	r3, #1
c043ef1c:	e5cd701b 	strb	r7, [sp, #27]
c043ef20:	e5cd301d 	strb	r3, [sp, #29]
c043ef24:	e3e0305a 	mvn	r3, #90	@ 0x5a
c043ef28:	e5cd601c 	strb	r6, [sp, #28]
c043ef2c:	e5cd501e 	strb	r5, [sp, #30]
c043ef30:	e5cd301f 	strb	r3, [sp, #31]
c043ef34:	ebfffa93 	bl	0xc043d988
c043ef38:	e3500000 	cmp	r0, #0
c043ef3c:	baffffeb 	blt	0xc043eef0
c043ef40:	e3a02007 	mov	r2, #7
c043ef44:	e28d101a 	add	r1, sp, #26
c043ef48:	e5940000 	ldr	r0, [r4]
c043ef4c:	e3a0305a 	mov	r3, #90	@ 0x5a
c043ef50:	e5cd901d 	strb	r9, [sp, #29]
c043ef54:	e5cd301e 	strb	r3, [sp, #30]
c043ef58:	e3e03061 	mvn	r3, #97	@ 0x61
c043ef5c:	e5cd701b 	strb	r7, [sp, #27]
c043ef60:	e5cd301f 	strb	r3, [sp, #31]
c043ef64:	e3a0306c 	mov	r3, #108	@ 0x6c
c043ef68:	e5cd601c 	strb	r6, [sp, #28]
c043ef6c:	e5cd3020 	strb	r3, [sp, #32]
c043ef70:	e5cd5021 	strb	r5, [sp, #33]	@ 0x21
c043ef74:	ebfffa83 	bl	0xc043d988
c043ef78:	e2509000 	subs	r9, r0, #0
c043ef7c:	baffffdb 	blt	0xc043eef0
c043ef80:	e59f011c 	ldr	r0, [pc, #284]	@ 0xc043f0a4
c043ef84:	e3e0207c 	mvn	r2, #124	@ 0x7c
c043ef88:	e59fa118 	ldr	sl, [pc, #280]	@ 0xc043f0a8
c043ef8c:	e1a01007 	mov	r1, r7
c043ef90:	e5903000 	ldr	r3, [r0]
c043ef94:	e5c32001 	strb	r2, [r3, #1]
c043ef98:	e3a02007 	mov	r2, #7
c043ef9c:	e5903000 	ldr	r3, [r0]
c043efa0:	e5c32002 	strb	r2, [r3, #2]
c043efa4:	e3a02004 	mov	r2, #4
c043efa8:	e5903000 	ldr	r3, [r0]
c043efac:	e5c32003 	strb	r2, [r3, #3]
c043efb0:	e5943000 	ldr	r3, [r4]
c043efb4:	e5933010 	ldr	r3, [r3, #16]
c043efb8:	e5932014 	ldr	r2, [r3, #20]
c043efbc:	e58d2000 	str	r2, [sp]
c043efc0:	e5933030 	ldr	r3, [r3, #48]	@ 0x30
c043efc4:	e59a2000 	ldr	r2, [sl]
c043efc8:	e5900000 	ldr	r0, [r0]
c043efcc:	e1a0c003 	mov	ip, r3
c043efd0:	e1a03006 	mov	r3, r6
c043efd4:	e12fff3c 	blx	ip
c043efd8:	e3a02005 	mov	r2, #5
c043efdc:	e2503000 	subs	r3, r0, #0
c043efe0:	e28d101a 	add	r1, sp, #26
c043efe4:	e5940000 	ldr	r0, [r4]
c043efe8:	e58d3014 	str	r3, [sp, #20]
c043efec:	b3e09000 	mvnlt	r9, #0
c043eff0:	e3e03001 	mvn	r3, #1
c043eff4:	e5cd701b 	strb	r7, [sp, #27]
c043eff8:	e5cd301d 	strb	r3, [sp, #29]
c043effc:	e3e0305a 	mvn	r3, #90	@ 0x5a
c043f000:	e5cd601c 	strb	r6, [sp, #28]
c043f004:	e5cd501e 	strb	r5, [sp, #30]
c043f008:	e5cd301f 	strb	r3, [sp, #31]
c043f00c:	ebfffa5d 	bl	0xc043d988
c043f010:	e3790001 	cmn	r9, #1
c043f014:	0affffb5 	beq	0xc043eef0
c043f018:	e59a0000 	ldr	r0, [sl]
c043f01c:	e28d101a 	add	r1, sp, #26
c043f020:	e59d3014 	ldr	r3, [sp, #20]
c043f024:	e59d200c 	ldr	r2, [sp, #12]
c043f028:	e0800003 	add	r0, r0, r3
c043f02c:	e1d030b4 	ldrh	r3, [r0, #4]
c043f030:	e5cd801b 	strb	r8, [sp, #27]
c043f034:	e5cdb01d 	strb	fp, [sp, #29]
c043f038:	e1c230b0 	strh	r3, [r2]
c043f03c:	e3a02005 	mov	r2, #5
c043f040:	e5940000 	ldr	r0, [r4]
c043f044:	e3a03071 	mov	r3, #113	@ 0x71
c043f048:	e5cd301c 	strb	r3, [sp, #28]
c043f04c:	e3a03041 	mov	r3, #65	@ 0x41
c043f050:	e5cd301e 	strb	r3, [sp, #30]
c043f054:	e3a0304c 	mov	r3, #76	@ 0x4c
c043f058:	e5cd301f 	strb	r3, [sp, #31]
c043f05c:	ebfffa49 	bl	0xc043d988
c043f060:	e3a02005 	mov	r2, #5
c043f064:	e5940000 	ldr	r0, [r4]
c043f068:	e3a03071 	mov	r3, #113	@ 0x71
c043f06c:	e28d101a 	add	r1, sp, #26
c043f070:	e5cd801b 	strb	r8, [sp, #27]
c043f074:	e5cd301c 	strb	r3, [sp, #28]
c043f078:	e3a0305a 	mov	r3, #90	@ 0x5a
c043f07c:	e5cdb01d 	strb	fp, [sp, #29]
c043f080:	e5cd301e 	strb	r3, [sp, #30]
c043f084:	e3e0303c 	mvn	r3, #60	@ 0x3c
c043f088:	e5cd301f 	strb	r3, [sp, #31]
c043f08c:	ebfffa3d 	bl	0xc043d988
c043f090:	eaffff97 	b	0xc043eef4
c043f094:	e28dd02c 	add	sp, sp, #44	@ 0x2c
c043f098:	e8bd8ff0 	pop	{r4, r5, r6, r7, r8, r9, sl, fp, pc}
c043f09c:	c0a04e08 	adcgt	r4, r0, r8, lsl #28
c043f0a0:	c0a5d4d0 	ldrdgt	sp, [r5], r0	@ <UNPREDICTABLE>
c043f0a4:	c0a5d4cc 	adcgt	sp, r5, ip, asr #9
c043f0a8:	c0a5d4c8 	adcgt	sp, r5, r8, asr #9
c043f0ac:	e92d43f0 	push	{r4, r5, r6, r7, r8, r9, lr}
c043f0b0:	e24dd01c 	sub	sp, sp, #28
c043f0b4:	e59f4120 	ldr	r4, [pc, #288]	@ 0xc043f1dc
c043f0b8:	e3a02005 	mov	r2, #5
c043f0bc:	e59f511c 	ldr	r5, [pc, #284]	@ 0xc043f1e0
c043f0c0:	e28d100c 	add	r1, sp, #12
c043f0c4:	e3a09053 	mov	r9, #83	@ 0x53
c043f0c8:	e3a08071 	mov	r8, #113	@ 0x71
c043f0cc:	e5943000 	ldr	r3, [r4]
c043f0d0:	e3a07023 	mov	r7, #35	@ 0x23
c043f0d4:	e5950000 	ldr	r0, [r5]
c043f0d8:	e3a06055 	mov	r6, #85	@ 0x55
c043f0dc:	e58d3014 	str	r3, [sp, #20]
c043f0e0:	e3a03000 	mov	r3, #0
c043f0e4:	e58d300c 	str	r3, [sp, #12]
c043f0e8:	e58d3010 	str	r3, [sp, #16]
c043f0ec:	e3e0305a 	mvn	r3, #90	@ 0x5a
c043f0f0:	e5cd900d 	strb	r9, [sp, #13]
c043f0f4:	e5cd3010 	strb	r3, [sp, #16]
c043f0f8:	e3a0303c 	mov	r3, #60	@ 0x3c
c043f0fc:	e5cd800e 	strb	r8, [sp, #14]
c043f100:	e5cd3011 	strb	r3, [sp, #17]
c043f104:	e5cd700f 	strb	r7, [sp, #15]
c043f108:	ebfffa1e 	bl	0xc043d988
c043f10c:	e3a02005 	mov	r2, #5
c043f110:	e5950000 	ldr	r0, [r5]
c043f114:	e3a03014 	mov	r3, #20
c043f118:	e28d100c 	add	r1, sp, #12
c043f11c:	e5cd3010 	strb	r3, [sp, #16]
c043f120:	e5cd6011 	strb	r6, [sp, #17]
c043f124:	e5cd900d 	strb	r9, [sp, #13]
c043f128:	e5cd800e 	strb	r8, [sp, #14]
c043f12c:	e5cd700f 	strb	r7, [sp, #15]
c043f130:	ebfffa14 	bl	0xc043d988
c043f134:	e3a02005 	mov	r2, #5
c043f138:	e5950000 	ldr	r0, [r5]
c043f13c:	e28d100c 	add	r1, sp, #12
c043f140:	e5cd6010 	strb	r6, [sp, #16]
c043f144:	e5cd6011 	strb	r6, [sp, #17]
c043f148:	e5cd900d 	strb	r9, [sp, #13]
c043f14c:	e5cd800e 	strb	r8, [sp, #14]
c043f150:	e5cd700f 	strb	r7, [sp, #15]
c043f154:	ebfffa0b 	bl	0xc043d988
c043f158:	e59f0084 	ldr	r0, [pc, #132]	@ 0xc043f1e4
c043f15c:	e3e0207e 	mvn	r2, #126	@ 0x7e
c043f160:	e5903000 	ldr	r3, [r0]
c043f164:	e5c32001 	strb	r2, [r3, #1]
c043f168:	e3a02001 	mov	r2, #1
c043f16c:	e5903000 	ldr	r3, [r0]
c043f170:	e5c32002 	strb	r2, [r3, #2]
c043f174:	e3a0201e 	mov	r2, #30
c043f178:	e5903000 	ldr	r3, [r0]
c043f17c:	e5c32003 	strb	r2, [r3, #3]
c043f180:	e5953000 	ldr	r3, [r5]
c043f184:	e59f505c 	ldr	r5, [pc, #92]	@ 0xc043f1e8
c043f188:	e5933010 	ldr	r3, [r3, #16]
c043f18c:	e5932014 	ldr	r2, [r3, #20]
c043f190:	e58d2000 	str	r2, [sp]
c043f194:	e5936028 	ldr	r6, [r3, #40]	@ 0x28
c043f198:	e3a03003 	mov	r3, #3
c043f19c:	e1a01003 	mov	r1, r3
c043f1a0:	e5952000 	ldr	r2, [r5]
c043f1a4:	e5900000 	ldr	r0, [r0]
c043f1a8:	e12fff36 	blx	r6
c043f1ac:	e3500000 	cmp	r0, #0
c043f1b0:	e59d2014 	ldr	r2, [sp, #20]
c043f1b4:	a5953000 	ldrge	r3, [r5]
c043f1b8:	b3e00000 	mvnlt	r0, #0
c043f1bc:	a0830000 	addge	r0, r3, r0
c043f1c0:	e5943000 	ldr	r3, [r4]
c043f1c4:	a5d00001 	ldrbge	r0, [r0, #1]
c043f1c8:	e1520003 	cmp	r2, r3
c043f1cc:	0a000000 	beq	0xc043f1d4
c043f1d0:	ebf367f5 	bl	0xc01191ac
c043f1d4:	e28dd01c 	add	sp, sp, #28
c043f1d8:	e8bd83f0 	pop	{r4, r5, r6, r7, r8, r9, pc}
c043f1dc:	c0a04e08 	adcgt	r4, r0, r8, lsl #28
c043f1e0:	c0a5d4d0 	ldrdgt	sp, [r5], r0	@ <UNPREDICTABLE>
c043f1e4:	c0a5d4cc 	adcgt	sp, r5, ip, asr #9
c043f1e8:	c0a5d4c8 	adcgt	sp, r5, r8, asr #9
c043f1ec:	e92d43f0 	push	{r4, r5, r6, r7, r8, r9, lr}
c043f1f0:	e24dd01c 	sub	sp, sp, #28
c043f1f4:	e59f4120 	ldr	r4, [pc, #288]	@ 0xc043f31c
c043f1f8:	e3a02005 	mov	r2, #5
c043f1fc:	e59f511c 	ldr	r5, [pc, #284]	@ 0xc043f320
c043f200:	e28d100c 	add	r1, sp, #12
c043f204:	e3a09053 	mov	r9, #83	@ 0x53
c043f208:	e3a08071 	mov	r8, #113	@ 0x71
c043f20c:	e5943000 	ldr	r3, [r4]
c043f210:	e3a07023 	mov	r7, #35	@ 0x23
c043f214:	e5950000 	ldr	r0, [r5]
c043f218:	e3a06055 	mov	r6, #85	@ 0x55
c043f21c:	e58d3014 	str	r3, [sp, #20]
c043f220:	e3a03000 	mov	r3, #0
c043f224:	e58d300c 	str	r3, [sp, #12]
c043f228:	e58d3010 	str	r3, [sp, #16]
c043f22c:	e3e0305a 	mvn	r3, #90	@ 0x5a
c043f230:	e5cd900d 	strb	r9, [sp, #13]
c043f234:	e5cd3010 	strb	r3, [sp, #16]
c043f238:	e3a0303c 	mov	r3, #60	@ 0x3c
c043f23c:	e5cd800e 	strb	r8, [sp, #14]
c043f240:	e5cd3011 	strb	r3, [sp, #17]
c043f244:	e5cd700f 	strb	r7, [sp, #15]
c043f248:	ebfff9ce 	bl	0xc043d988
c043f24c:	e3a02005 	mov	r2, #5
c043f250:	e5950000 	ldr	r0, [r5]
c043f254:	e3a03014 	mov	r3, #20
c043f258:	e28d100c 	add	r1, sp, #12
c043f25c:	e5cd3010 	strb	r3, [sp, #16]
c043f260:	e5cd6011 	strb	r6, [sp, #17]
c043f264:	e5cd900d 	strb	r9, [sp, #13]
c043f268:	e5cd800e 	strb	r8, [sp, #14]
c043f26c:	e5cd700f 	strb	r7, [sp, #15]
c043f270:	ebfff9c4 	bl	0xc043d988
c043f274:	e3a02005 	mov	r2, #5
c043f278:	e5950000 	ldr	r0, [r5]
c043f27c:	e28d100c 	add	r1, sp, #12
c043f280:	e5cd6010 	strb	r6, [sp, #16]
c043f284:	e5cd6011 	strb	r6, [sp, #17]
c043f288:	e5cd900d 	strb	r9, [sp, #13]
c043f28c:	e5cd800e 	strb	r8, [sp, #14]
c043f290:	e5cd700f 	strb	r7, [sp, #15]
c043f294:	ebfff9bb 	bl	0xc043d988
c043f298:	e59f0084 	ldr	r0, [pc, #132]	@ 0xc043f324
c043f29c:	e3e0207e 	mvn	r2, #126	@ 0x7e
c043f2a0:	e5903000 	ldr	r3, [r0]
c043f2a4:	e5c32001 	strb	r2, [r3, #1]
c043f2a8:	e3a02001 	mov	r2, #1
c043f2ac:	e5903000 	ldr	r3, [r0]
c043f2b0:	e5c32002 	strb	r2, [r3, #2]
c043f2b4:	e3e0203d 	mvn	r2, #61	@ 0x3d
c043f2b8:	e5903000 	ldr	r3, [r0]
c043f2bc:	e5c32003 	strb	r2, [r3, #3]
c043f2c0:	e5953000 	ldr	r3, [r5]
c043f2c4:	e59f505c 	ldr	r5, [pc, #92]	@ 0xc043f328
c043f2c8:	e5933010 	ldr	r3, [r3, #16]
c043f2cc:	e5932014 	ldr	r2, [r3, #20]
c043f2d0:	e58d2000 	str	r2, [sp]
c043f2d4:	e5936028 	ldr	r6, [r3, #40]	@ 0x28
c043f2d8:	e3a03003 	mov	r3, #3
c043f2dc:	e1a01003 	mov	r1, r3
c043f2e0:	e5952000 	ldr	r2, [r5]
c043f2e4:	e5900000 	ldr	r0, [r0]
c043f2e8:	e12fff36 	blx	r6
c043f2ec:	e3500000 	cmp	r0, #0
c043f2f0:	e59d2014 	ldr	r2, [sp, #20]
c043f2f4:	a5953000 	ldrge	r3, [r5]
c043f2f8:	b3e00000 	mvnlt	r0, #0
c043f2fc:	a0830000 	addge	r0, r3, r0
c043f300:	e5943000 	ldr	r3, [r4]
c043f304:	a5d00001 	ldrbge	r0, [r0, #1]
c043f308:	e1520003 	cmp	r2, r3
c043f30c:	0a000000 	beq	0xc043f314
c043f310:	ebf367a5 	bl	0xc01191ac
c043f314:	e28dd01c 	add	sp, sp, #28
c043f318:	e8bd83f0 	pop	{r4, r5, r6, r7, r8, r9, pc}
c043f31c:	c0a04e08 	adcgt	r4, r0, r8, lsl #28
c043f320:	c0a5d4d0 	ldrdgt	sp, [r5], r0	@ <UNPREDICTABLE>
c043f324:	c0a5d4cc 	adcgt	sp, r5, ip, asr #9
c043f328:	c0a5d4c8 	adcgt	sp, r5, r8, asr #9
c043f32c:	e352007a 	cmp	r2, #122	@ 0x7a
c043f330:	e92d4ff8 	push	{r3, r4, r5, r6, r7, r8, r9, sl, fp, lr}
c043f334:	c3e05000 	mvngt	r5, #0
c043f338:	ca000036 	bgt	0xc043f418
c043f33c:	e59f31d4 	ldr	r3, [pc, #468]	@ 0xc043f518
c043f340:	e1a08000 	mov	r8, r0
c043f344:	e1a07001 	mov	r7, r1
c043f348:	e3a01d37 	mov	r1, #3520	@ 0xdc0
c043f34c:	e1a06002 	mov	r6, r2
c043f350:	e593001c 	ldr	r0, [r3, #28]
c043f354:	ebf6299d 	bl	0xc01c99d0
c043f358:	e2504000 	subs	r4, r0, #0
c043f35c:	03e0500b 	mvneq	r5, #11
c043f360:	0a00002c 	beq	0xc043f418
c043f364:	e59f51b0 	ldr	r5, [pc, #432]	@ 0xc043f51c
c043f368:	e3a0b053 	mov	fp, #83	@ 0x53
c043f36c:	e3a0a071 	mov	sl, #113	@ 0x71
c043f370:	e3a09023 	mov	r9, #35	@ 0x23
c043f374:	e3e0305a 	mvn	r3, #90	@ 0x5a
c043f378:	e3a02005 	mov	r2, #5
c043f37c:	e5c43004 	strb	r3, [r4, #4]
c043f380:	e1a01004 	mov	r1, r4
c043f384:	e3a0303c 	mov	r3, #60	@ 0x3c
c043f388:	e5c4b001 	strb	fp, [r4, #1]
c043f38c:	e5c43005 	strb	r3, [r4, #5]
c043f390:	e5c4a002 	strb	sl, [r4, #2]
c043f394:	e5c49003 	strb	r9, [r4, #3]
c043f398:	e5950000 	ldr	r0, [r5]
c043f39c:	ebfff979 	bl	0xc043d988
c043f3a0:	e3a03014 	mov	r3, #20
c043f3a4:	e3a02005 	mov	r2, #5
c043f3a8:	e5c43004 	strb	r3, [r4, #4]
c043f3ac:	e1a01004 	mov	r1, r4
c043f3b0:	e3a03055 	mov	r3, #85	@ 0x55
c043f3b4:	e5c4b001 	strb	fp, [r4, #1]
c043f3b8:	e5c43005 	strb	r3, [r4, #5]
c043f3bc:	e5c4a002 	strb	sl, [r4, #2]
c043f3c0:	e5c49003 	strb	r9, [r4, #3]
c043f3c4:	e5950000 	ldr	r0, [r5]
c043f3c8:	ebfff96e 	bl	0xc043d988
c043f3cc:	e3a03003 	mov	r3, #3
c043f3d0:	e3a02005 	mov	r2, #5
c043f3d4:	e5c43001 	strb	r3, [r4, #1]
c043f3d8:	e1a01004 	mov	r1, r4
c043f3dc:	e3a03006 	mov	r3, #6
c043f3e0:	e5950000 	ldr	r0, [r5]
c043f3e4:	e5c43002 	strb	r3, [r4, #2]
c043f3e8:	e3e03003 	mvn	r3, #3
c043f3ec:	e5c43003 	strb	r3, [r4, #3]
c043f3f0:	e3a0305a 	mov	r3, #90	@ 0x5a
c043f3f4:	e5c43004 	strb	r3, [r4, #4]
c043f3f8:	e3e03062 	mvn	r3, #98	@ 0x62
c043f3fc:	e5c43005 	strb	r3, [r4, #5]
c043f400:	ebfff960 	bl	0xc043d988
c043f404:	e3500000 	cmp	r0, #0
c043f408:	aa000004 	bge	0xc043f420
c043f40c:	e3e05000 	mvn	r5, #0
c043f410:	e1a00004 	mov	r0, r4
c043f414:	ebf6260f 	bl	0xc01c8c58
c043f418:	e1a00005 	mov	r0, r5
c043f41c:	e8bd8ff8 	pop	{r3, r4, r5, r6, r7, r8, r9, sl, fp, pc}
c043f420:	e2063001 	and	r3, r6, #1
c043f424:	e3560000 	cmp	r6, #0
c043f428:	b2633000 	rsblt	r3, r3, #0
c043f42c:	e3a0a006 	mov	sl, #6
c043f430:	e3530001 	cmp	r3, #1
c043f434:	e5c48004 	strb	r8, [r4, #4]
c043f438:	02866001 	addeq	r6, r6, #1
c043f43c:	e3a08000 	mov	r8, #0
c043f440:	e1a01007 	mov	r1, r7
c043f444:	e3a0b003 	mov	fp, #3
c043f448:	e1a02006 	mov	r2, r6
c043f44c:	e5c4b001 	strb	fp, [r4, #1]
c043f450:	e5c4a002 	strb	sl, [r4, #2]
c043f454:	e3e09001 	mvn	r9, #1
c043f458:	e5c48005 	strb	r8, [r4, #5]
c043f45c:	e084000a 	add	r0, r4, sl
c043f460:	e5c49003 	strb	r9, [r4, #3]
c043f464:	eb08241d 	bl	0xc06484e0
c043f468:	e2862005 	add	r2, r6, #5
c043f46c:	e1a01004 	mov	r1, r4
c043f470:	e5950000 	ldr	r0, [r5]
c043f474:	e6ff2072 	uxth	r2, r2
c043f478:	ebfff942 	bl	0xc043d988
c043f47c:	e1500008 	cmp	r0, r8
c043f480:	baffffe1 	blt	0xc043f40c
c043f484:	e3e0305a 	mvn	r3, #90	@ 0x5a
c043f488:	e5c48004 	strb	r8, [r4, #4]
c043f48c:	e5c43005 	strb	r3, [r4, #5]
c043f490:	e3a02005 	mov	r2, #5
c043f494:	e1a01004 	mov	r1, r4
c043f498:	e5950000 	ldr	r0, [r5]
c043f49c:	e5c4b001 	strb	fp, [r4, #1]
c043f4a0:	e3a08053 	mov	r8, #83	@ 0x53
c043f4a4:	e5c4a002 	strb	sl, [r4, #2]
c043f4a8:	e3a07071 	mov	r7, #113	@ 0x71
c043f4ac:	e5c49003 	strb	r9, [r4, #3]
c043f4b0:	e3a06023 	mov	r6, #35	@ 0x23
c043f4b4:	ebfff933 	bl	0xc043d988
c043f4b8:	e3a03041 	mov	r3, #65	@ 0x41
c043f4bc:	e3a02005 	mov	r2, #5
c043f4c0:	e5c43004 	strb	r3, [r4, #4]
c043f4c4:	e1a01004 	mov	r1, r4
c043f4c8:	e3a0304c 	mov	r3, #76	@ 0x4c
c043f4cc:	e5950000 	ldr	r0, [r5]
c043f4d0:	e5c43005 	strb	r3, [r4, #5]
c043f4d4:	e5c48001 	strb	r8, [r4, #1]
c043f4d8:	e5c47002 	strb	r7, [r4, #2]
c043f4dc:	e5c46003 	strb	r6, [r4, #3]
c043f4e0:	ebfff928 	bl	0xc043d988
c043f4e4:	e3a0305a 	mov	r3, #90	@ 0x5a
c043f4e8:	e5950000 	ldr	r0, [r5]
c043f4ec:	e3a02005 	mov	r2, #5
c043f4f0:	e5c43004 	strb	r3, [r4, #4]
c043f4f4:	e1a01004 	mov	r1, r4
c043f4f8:	e3e0303c 	mvn	r3, #60	@ 0x3c
c043f4fc:	e5c48001 	strb	r8, [r4, #1]
c043f500:	e5c47002 	strb	r7, [r4, #2]
c043f504:	e5c46003 	strb	r6, [r4, #3]
c043f508:	e5c43005 	strb	r3, [r4, #5]
c043f50c:	ebfff91d 	bl	0xc043d988
c043f510:	e1a05000 	mov	r5, r0
c043f514:	eaffffbd 	b	0xc043f410
c043f518:	c08272d0 	ldrdgt	r7, [r2], r0
c043f51c:	c0a5d4d0 	ldrdgt	sp, [r5], r0	@ <UNPREDICTABLE>
c043f520:	e92d401f 	push	{r0, r1, r2, r3, r4, lr}
c043f524:	e3510000 	cmp	r1, #0
c043f528:	e59f304c 	ldr	r3, [pc, #76]	@ 0xc043f57c
c043f52c:	128d1004 	addne	r1, sp, #4
c043f530:	13a00011 	movne	r0, #17
c043f534:	03a00010 	moveq	r0, #16
c043f538:	e5932000 	ldr	r2, [r3]
c043f53c:	e1a04003 	mov	r4, r3
c043f540:	e58d200c 	str	r2, [sp, #12]
c043f544:	e3a02000 	mov	r2, #0
c043f548:	e58d2004 	str	r2, [sp, #4]
c043f54c:	e58d2008 	str	r2, [sp, #8]
c043f550:	01a02001 	moveq	r2, r1
c043f554:	028d1004 	addeq	r1, sp, #4
c043f558:	ebffff73 	bl	0xc043f32c
c043f55c:	e3a00000 	mov	r0, #0
c043f560:	e59d200c 	ldr	r2, [sp, #12]
c043f564:	e5943000 	ldr	r3, [r4]
c043f568:	e1520003 	cmp	r2, r3
c043f56c:	0a000000 	beq	0xc043f574
c043f570:	ebf3670d 	bl	0xc01191ac
c043f574:	e28dd010 	add	sp, sp, #16
c043f578:	e8bd8010 	pop	{r4, pc}
c043f57c:	c0a04e08 	adcgt	r4, r0, r8, lsl #28
c043f580:	e59f32c0 	ldr	r3, [pc, #704]	@ 0xc043f848
c043f584:	e92d4ff0 	push	{r4, r5, r6, r7, r8, r9, sl, fp, lr}
c043f588:	e24dd03c 	sub	sp, sp, #60	@ 0x3c
c043f58c:	e5933000 	ldr	r3, [r3]
c043f590:	e1a0a000 	mov	sl, r0
c043f594:	e58d100c 	str	r1, [sp, #12]
c043f598:	e28d0014 	add	r0, sp, #20
c043f59c:	e58d2008 	str	r2, [sp, #8]
c043f5a0:	e3a01000 	mov	r1, #0
c043f5a4:	e3a02020 	mov	r2, #32
c043f5a8:	e58d3034 	str	r3, [sp, #52]	@ 0x34
c043f5ac:	eb08256b 	bl	0xc0648b60
c043f5b0:	e59d3008 	ldr	r3, [sp, #8]
c043f5b4:	e353001a 	cmp	r3, #26
c043f5b8:	83e00000 	mvnhi	r0, #0
c043f5bc:	8a000099 	bhi	0xc043f828
c043f5c0:	e59f4284 	ldr	r4, [pc, #644]	@ 0xc043f84c
c043f5c4:	e3a02005 	mov	r2, #5
c043f5c8:	e28d1014 	add	r1, sp, #20
c043f5cc:	e3a09023 	mov	r9, #35	@ 0x23
c043f5d0:	e3e0805a 	mvn	r8, #90	@ 0x5a
c043f5d4:	e3a03053 	mov	r3, #83	@ 0x53
c043f5d8:	e5940000 	ldr	r0, [r4]
c043f5dc:	e3a05000 	mov	r5, #0
c043f5e0:	e5cd3015 	strb	r3, [sp, #21]
c043f5e4:	e3a03071 	mov	r3, #113	@ 0x71
c043f5e8:	e5cd9017 	strb	r9, [sp, #23]
c043f5ec:	e3a06003 	mov	r6, #3
c043f5f0:	e5cd3016 	strb	r3, [sp, #22]
c043f5f4:	e3a0303c 	mov	r3, #60	@ 0x3c
c043f5f8:	e5cd8018 	strb	r8, [sp, #24]
c043f5fc:	e3a07006 	mov	r7, #6
c043f600:	e5cd3019 	strb	r3, [sp, #25]
c043f604:	ebfff8df 	bl	0xc043d988
c043f608:	e3a02005 	mov	r2, #5
c043f60c:	e5940000 	ldr	r0, [r4]
c043f610:	e3a03053 	mov	r3, #83	@ 0x53
c043f614:	e3a0b05a 	mov	fp, #90	@ 0x5a
c043f618:	e28d1014 	add	r1, sp, #20
c043f61c:	e5cd3015 	strb	r3, [sp, #21]
c043f620:	e5cd9017 	strb	r9, [sp, #23]
c043f624:	e3a03071 	mov	r3, #113	@ 0x71
c043f628:	e5cd3016 	strb	r3, [sp, #22]
c043f62c:	e3a03014 	mov	r3, #20
c043f630:	e5cd3018 	strb	r3, [sp, #24]
c043f634:	e3a03055 	mov	r3, #85	@ 0x55
c043f638:	e5cd3019 	strb	r3, [sp, #25]
c043f63c:	ebfff8d1 	bl	0xc043d988
c043f640:	e3a02009 	mov	r2, #9
c043f644:	e5940000 	ldr	r0, [r4]
c043f648:	e3e03003 	mvn	r3, #3
c043f64c:	e28d1014 	add	r1, sp, #20
c043f650:	e5cd3017 	strb	r3, [sp, #23]
c043f654:	e5cd6015 	strb	r6, [sp, #21]
c043f658:	e3e03062 	mvn	r3, #98	@ 0x62
c043f65c:	e5cd7016 	strb	r7, [sp, #22]
c043f660:	e5cd3019 	strb	r3, [sp, #25]
c043f664:	e3e03042 	mvn	r3, #66	@ 0x42
c043f668:	e5cdb018 	strb	fp, [sp, #24]
c043f66c:	e5cd301a 	strb	r3, [sp, #26]
c043f670:	e5cd501b 	strb	r5, [sp, #27]
c043f674:	e5cd501c 	strb	r5, [sp, #28]
c043f678:	e5cd501d 	strb	r5, [sp, #29]
c043f67c:	ebfff8c1 	bl	0xc043d988
c043f680:	e3a02005 	mov	r2, #5
c043f684:	e5940000 	ldr	r0, [r4]
c043f688:	e3e03001 	mvn	r3, #1
c043f68c:	e28d1014 	add	r1, sp, #20
c043f690:	e5cd3017 	strb	r3, [sp, #23]
c043f694:	e5cd6015 	strb	r6, [sp, #21]
c043f698:	e5cd7016 	strb	r7, [sp, #22]
c043f69c:	e5cd5018 	strb	r5, [sp, #24]
c043f6a0:	e5cd8019 	strb	r8, [sp, #25]
c043f6a4:	ebfff8b7 	bl	0xc043d988
c043f6a8:	e3a02007 	mov	r2, #7
c043f6ac:	e5940000 	ldr	r0, [r4]
c043f6b0:	e3e03003 	mvn	r3, #3
c043f6b4:	e28d1014 	add	r1, sp, #20
c043f6b8:	e5cd3017 	strb	r3, [sp, #23]
c043f6bc:	e5cda01a 	strb	sl, [sp, #26]
c043f6c0:	e3e03061 	mvn	r3, #97	@ 0x61
c043f6c4:	e5cd6015 	strb	r6, [sp, #21]
c043f6c8:	e5cd3019 	strb	r3, [sp, #25]
c043f6cc:	e5cd7016 	strb	r7, [sp, #22]
c043f6d0:	e5cdb018 	strb	fp, [sp, #24]
c043f6d4:	e5cd501b 	strb	r5, [sp, #27]
c043f6d8:	ebfff8aa 	bl	0xc043d988
c043f6dc:	e3e0307c 	mvn	r3, #124	@ 0x7c
c043f6e0:	e59fa168 	ldr	sl, [pc, #360]	@ 0xc043f850
c043f6e4:	e1a01006 	mov	r1, r6
c043f6e8:	e5cd3015 	strb	r3, [sp, #21]
c043f6ec:	e3a03007 	mov	r3, #7
c043f6f0:	e5cd3016 	strb	r3, [sp, #22]
c043f6f4:	e28d0014 	add	r0, sp, #20
c043f6f8:	e5943000 	ldr	r3, [r4]
c043f6fc:	e5cd5017 	strb	r5, [sp, #23]
c043f700:	e5933010 	ldr	r3, [r3, #16]
c043f704:	e5932014 	ldr	r2, [r3, #20]
c043f708:	e58d2000 	str	r2, [sp]
c043f70c:	e5933030 	ldr	r3, [r3, #48]	@ 0x30
c043f710:	e59a2000 	ldr	r2, [sl]
c043f714:	e1a0c003 	mov	ip, r3
c043f718:	e1dd30b8 	ldrh	r3, [sp, #8]
c043f71c:	e12fff3c 	blx	ip
c043f720:	e59a1000 	ldr	r1, [sl]
c043f724:	e59d2008 	ldr	r2, [sp, #8]
c043f728:	e0811000 	add	r1, r1, r0
c043f72c:	e59d000c 	ldr	r0, [sp, #12]
c043f730:	eb08236a 	bl	0xc06484e0
c043f734:	e3a02005 	mov	r2, #5
c043f738:	e5940000 	ldr	r0, [r4]
c043f73c:	e3e03001 	mvn	r3, #1
c043f740:	e28d1014 	add	r1, sp, #20
c043f744:	e5cd3017 	strb	r3, [sp, #23]
c043f748:	e5cd6015 	strb	r6, [sp, #21]
c043f74c:	e5cd7016 	strb	r7, [sp, #22]
c043f750:	e5cd5018 	strb	r5, [sp, #24]
c043f754:	e5cd8019 	strb	r8, [sp, #25]
c043f758:	ebfff88a 	bl	0xc043d988
c043f75c:	e3a02009 	mov	r2, #9
c043f760:	e5940000 	ldr	r0, [r4]
c043f764:	e3e03003 	mvn	r3, #3
c043f768:	e28d1014 	add	r1, sp, #20
c043f76c:	e5cd3017 	strb	r3, [sp, #23]
c043f770:	e5cd6015 	strb	r6, [sp, #21]
c043f774:	e3e03062 	mvn	r3, #98	@ 0x62
c043f778:	e5cd7016 	strb	r7, [sp, #22]
c043f77c:	e5cd3019 	strb	r3, [sp, #25]
c043f780:	e3e03042 	mvn	r3, #66	@ 0x42
c043f784:	e5cdb018 	strb	fp, [sp, #24]
c043f788:	e5cd301a 	strb	r3, [sp, #26]
c043f78c:	e5cd501b 	strb	r5, [sp, #27]
c043f790:	e5cd601c 	strb	r6, [sp, #28]
c043f794:	e5cd501d 	strb	r5, [sp, #29]
c043f798:	ebfff87a 	bl	0xc043d988
c043f79c:	e3a02005 	mov	r2, #5
c043f7a0:	e5940000 	ldr	r0, [r4]
c043f7a4:	e3e03001 	mvn	r3, #1
c043f7a8:	e28d1014 	add	r1, sp, #20
c043f7ac:	e5cd3017 	strb	r3, [sp, #23]
c043f7b0:	e5cd6015 	strb	r6, [sp, #21]
c043f7b4:	e5cd7016 	strb	r7, [sp, #22]
c043f7b8:	e5cd5018 	strb	r5, [sp, #24]
c043f7bc:	e5cd8019 	strb	r8, [sp, #25]
c043f7c0:	ebfff870 	bl	0xc043d988
c043f7c4:	e3a02005 	mov	r2, #5
c043f7c8:	e5940000 	ldr	r0, [r4]
c043f7cc:	e3a03053 	mov	r3, #83	@ 0x53
c043f7d0:	e28d1014 	add	r1, sp, #20
c043f7d4:	e5cd3015 	strb	r3, [sp, #21]
c043f7d8:	e5cd9017 	strb	r9, [sp, #23]
c043f7dc:	e3a03071 	mov	r3, #113	@ 0x71
c043f7e0:	e5cd3016 	strb	r3, [sp, #22]
c043f7e4:	e3a03041 	mov	r3, #65	@ 0x41
c043f7e8:	e5cd3018 	strb	r3, [sp, #24]
c043f7ec:	e3a0304c 	mov	r3, #76	@ 0x4c
c043f7f0:	e5cd3019 	strb	r3, [sp, #25]
c043f7f4:	ebfff863 	bl	0xc043d988
c043f7f8:	e3a02005 	mov	r2, #5
c043f7fc:	e5940000 	ldr	r0, [r4]
c043f800:	e3a03053 	mov	r3, #83	@ 0x53
c043f804:	e28d1014 	add	r1, sp, #20
c043f808:	e5cd3015 	strb	r3, [sp, #21]
c043f80c:	e5cd9017 	strb	r9, [sp, #23]
c043f810:	e3a03071 	mov	r3, #113	@ 0x71
c043f814:	e5cdb018 	strb	fp, [sp, #24]
c043f818:	e5cd3016 	strb	r3, [sp, #22]
c043f81c:	e3e0303c 	mvn	r3, #60	@ 0x3c
c043f820:	e5cd3019 	strb	r3, [sp, #25]
c043f824:	ebfff857 	bl	0xc043d988
c043f828:	e59f3018 	ldr	r3, [pc, #24]	@ 0xc043f848
c043f82c:	e59d2034 	ldr	r2, [sp, #52]	@ 0x34
c043f830:	e5933000 	ldr	r3, [r3]
c043f834:	e1520003 	cmp	r2, r3
c043f838:	0a000000 	beq	0xc043f840
c043f83c:	ebf3665a 	bl	0xc01191ac
c043f840:	e28dd03c 	add	sp, sp, #60	@ 0x3c
c043f844:	e8bd8ff0 	pop	{r4, r5, r6, r7, r8, r9, sl, fp, pc}
c043f848:	c0a04e08 	adcgt	r4, r0, r8, lsl #28
c043f84c:	c0a5d4d0 	ldrdgt	sp, [r5], r0	@ <UNPREDICTABLE>
c043f850:	c0a5d4cc 	adcgt	sp, r5, ip, asr #9
c043f854:	e59f3308 	ldr	r3, [pc, #776]	@ 0xc043fb64
c043f858:	e3a02010 	mov	r2, #16
c043f85c:	e92d4ff0 	push	{r4, r5, r6, r7, r8, r9, sl, fp, lr}
c043f860:	e24dd024 	sub	sp, sp, #36	@ 0x24
c043f864:	e5933000 	ldr	r3, [r3]
c043f868:	e3a01000 	mov	r1, #0
c043f86c:	e28d000c 	add	r0, sp, #12
c043f870:	e59f42f0 	ldr	r4, [pc, #752]	@ 0xc043fb68
c043f874:	e3a09071 	mov	r9, #113	@ 0x71
c043f878:	e3a08023 	mov	r8, #35	@ 0x23
c043f87c:	e58d301c 	str	r3, [sp, #28]
c043f880:	eb0824b6 	bl	0xc0648b60
c043f884:	e3a02005 	mov	r2, #5
c043f888:	e5940000 	ldr	r0, [r4]
c043f88c:	e3e0b05a 	mvn	fp, #90	@ 0x5a
c043f890:	e3a03053 	mov	r3, #83	@ 0x53
c043f894:	e3a05000 	mov	r5, #0
c043f898:	e3a07003 	mov	r7, #3
c043f89c:	e3a06006 	mov	r6, #6
c043f8a0:	e3a0a05a 	mov	sl, #90	@ 0x5a
c043f8a4:	e28d100c 	add	r1, sp, #12
c043f8a8:	e5cd300d 	strb	r3, [sp, #13]
c043f8ac:	e5cd900e 	strb	r9, [sp, #14]
c043f8b0:	e3a0303c 	mov	r3, #60	@ 0x3c
c043f8b4:	e5cd800f 	strb	r8, [sp, #15]
c043f8b8:	e5cd3011 	strb	r3, [sp, #17]
c043f8bc:	e5cdb010 	strb	fp, [sp, #16]
c043f8c0:	ebfff830 	bl	0xc043d988
c043f8c4:	e3a02005 	mov	r2, #5
c043f8c8:	e5940000 	ldr	r0, [r4]
c043f8cc:	e3a03053 	mov	r3, #83	@ 0x53
c043f8d0:	e28d100c 	add	r1, sp, #12
c043f8d4:	e5cd300d 	strb	r3, [sp, #13]
c043f8d8:	e5cd900e 	strb	r9, [sp, #14]
c043f8dc:	e3a03014 	mov	r3, #20
c043f8e0:	e5cd800f 	strb	r8, [sp, #15]
c043f8e4:	e5cd3010 	strb	r3, [sp, #16]
c043f8e8:	e3a03055 	mov	r3, #85	@ 0x55
c043f8ec:	e5cd3011 	strb	r3, [sp, #17]
c043f8f0:	ebfff824 	bl	0xc043d988
c043f8f4:	e3e0205d 	mvn	r2, #93	@ 0x5d
c043f8f8:	e5940000 	ldr	r0, [r4]
c043f8fc:	e3e03003 	mvn	r3, #3
c043f900:	e5cd2016 	strb	r2, [sp, #22]
c043f904:	e28d100c 	add	r1, sp, #12
c043f908:	e3a0200b 	mov	r2, #11
c043f90c:	e5cd300f 	strb	r3, [sp, #15]
c043f910:	e5cd700d 	strb	r7, [sp, #13]
c043f914:	e3e03062 	mvn	r3, #98	@ 0x62
c043f918:	e5cd600e 	strb	r6, [sp, #14]
c043f91c:	e5cd3011 	strb	r3, [sp, #17]
c043f920:	e3a03060 	mov	r3, #96	@ 0x60
c043f924:	e5cda010 	strb	sl, [sp, #16]
c043f928:	e5cd3012 	strb	r3, [sp, #18]
c043f92c:	e58d3004 	str	r3, [sp, #4]
c043f930:	e5cd5013 	strb	r5, [sp, #19]
c043f934:	e5cd9014 	strb	r9, [sp, #20]
c043f938:	e5cd8015 	strb	r8, [sp, #21]
c043f93c:	e5cd5017 	strb	r5, [sp, #23]
c043f940:	ebfff810 	bl	0xc043d988
c043f944:	e3a02005 	mov	r2, #5
c043f948:	e5940000 	ldr	r0, [r4]
c043f94c:	e3e03001 	mvn	r3, #1
c043f950:	e28d100c 	add	r1, sp, #12
c043f954:	e5cd300f 	strb	r3, [sp, #15]
c043f958:	e5cd700d 	strb	r7, [sp, #13]
c043f95c:	e5cd600e 	strb	r6, [sp, #14]
c043f960:	e5cd5010 	strb	r5, [sp, #16]
c043f964:	e5cdb011 	strb	fp, [sp, #17]
c043f968:	ebfff806 	bl	0xc043d988
c043f96c:	e3a00001 	mov	r0, #1
c043f970:	ebf4b82a 	bl	0xc016da20
c043f974:	e3e03003 	mvn	r3, #3
c043f978:	e3e0205c 	mvn	r2, #92	@ 0x5c
c043f97c:	e5940000 	ldr	r0, [r4]
c043f980:	e5cd300f 	strb	r3, [sp, #15]
c043f984:	e3e03062 	mvn	r3, #98	@ 0x62
c043f988:	e5cd3011 	strb	r3, [sp, #17]
c043f98c:	e28d100c 	add	r1, sp, #12
c043f990:	e59d3004 	ldr	r3, [sp, #4]
c043f994:	e5cd2016 	strb	r2, [sp, #22]
c043f998:	e3a02008 	mov	r2, #8
c043f99c:	e5cd700d 	strb	r7, [sp, #13]
c043f9a0:	e5cd3012 	strb	r3, [sp, #18]
c043f9a4:	e5cd600e 	strb	r6, [sp, #14]
c043f9a8:	e5cda010 	strb	sl, [sp, #16]
c043f9ac:	e5cd5013 	strb	r5, [sp, #19]
c043f9b0:	e5cd9014 	strb	r9, [sp, #20]
c043f9b4:	e5cd8015 	strb	r8, [sp, #21]
c043f9b8:	e5cd5017 	strb	r5, [sp, #23]
c043f9bc:	ebfff7f1 	bl	0xc043d988
c043f9c0:	e3a02005 	mov	r2, #5
c043f9c4:	e5940000 	ldr	r0, [r4]
c043f9c8:	e3e03001 	mvn	r3, #1
c043f9cc:	e28d100c 	add	r1, sp, #12
c043f9d0:	e5cd300f 	strb	r3, [sp, #15]
c043f9d4:	e5cd700d 	strb	r7, [sp, #13]
c043f9d8:	e5cd600e 	strb	r6, [sp, #14]
c043f9dc:	e5cd5010 	strb	r5, [sp, #16]
c043f9e0:	e5cdb011 	strb	fp, [sp, #17]
c043f9e4:	ebfff7e7 	bl	0xc043d988
c043f9e8:	e3a00001 	mov	r0, #1
c043f9ec:	ebf4b80b 	bl	0xc016da20
c043f9f0:	e3e03003 	mvn	r3, #3
c043f9f4:	e3a02008 	mov	r2, #8
c043f9f8:	e5940000 	ldr	r0, [r4]
c043f9fc:	e5cd300f 	strb	r3, [sp, #15]
c043fa00:	e3e03062 	mvn	r3, #98	@ 0x62
c043fa04:	e5cd3011 	strb	r3, [sp, #17]
c043fa08:	e28d100c 	add	r1, sp, #12
c043fa0c:	e59d3004 	ldr	r3, [sp, #4]
c043fa10:	e5cd700d 	strb	r7, [sp, #13]
c043fa14:	e5cd600e 	strb	r6, [sp, #14]
c043fa18:	e5cd3012 	strb	r3, [sp, #18]
c043fa1c:	e3e0305b 	mvn	r3, #91	@ 0x5b
c043fa20:	e5cda010 	strb	sl, [sp, #16]
c043fa24:	e5cd3016 	strb	r3, [sp, #22]
c043fa28:	e5cd5013 	strb	r5, [sp, #19]
c043fa2c:	e5cd9014 	strb	r9, [sp, #20]
c043fa30:	e5cd8015 	strb	r8, [sp, #21]
c043fa34:	e5cd5017 	strb	r5, [sp, #23]
c043fa38:	ebfff7d2 	bl	0xc043d988
c043fa3c:	e3a02005 	mov	r2, #5
c043fa40:	e5940000 	ldr	r0, [r4]
c043fa44:	e3e03001 	mvn	r3, #1
c043fa48:	e28d100c 	add	r1, sp, #12
c043fa4c:	e5cd300f 	strb	r3, [sp, #15]
c043fa50:	e5cd700d 	strb	r7, [sp, #13]
c043fa54:	e5cd600e 	strb	r6, [sp, #14]
c043fa58:	e5cd5010 	strb	r5, [sp, #16]
c043fa5c:	e5cdb011 	strb	fp, [sp, #17]
c043fa60:	ebfff7c8 	bl	0xc043d988
c043fa64:	e3a00001 	mov	r0, #1
c043fa68:	ebf4b7ec 	bl	0xc016da20
c043fa6c:	e3a02009 	mov	r2, #9
c043fa70:	e5940000 	ldr	r0, [r4]
c043fa74:	e3e03003 	mvn	r3, #3
c043fa78:	e28d100c 	add	r1, sp, #12
c043fa7c:	e5cd300f 	strb	r3, [sp, #15]
c043fa80:	e5cd700d 	strb	r7, [sp, #13]
c043fa84:	e3e03062 	mvn	r3, #98	@ 0x62
c043fa88:	e5cd600e 	strb	r6, [sp, #14]
c043fa8c:	e5cd3011 	strb	r3, [sp, #17]
c043fa90:	e3a0304f 	mov	r3, #79	@ 0x4f
c043fa94:	e5cda010 	strb	sl, [sp, #16]
c043fa98:	e5cd3012 	strb	r3, [sp, #18]
c043fa9c:	e3a03001 	mov	r3, #1
c043faa0:	e5cd5013 	strb	r5, [sp, #19]
c043faa4:	e5cd3014 	strb	r3, [sp, #20]
c043faa8:	e58d3004 	str	r3, [sp, #4]
c043faac:	e5cd5015 	strb	r5, [sp, #21]
c043fab0:	ebfff7b4 	bl	0xc043d988
c043fab4:	e3a02005 	mov	r2, #5
c043fab8:	e5940000 	ldr	r0, [r4]
c043fabc:	e3e03001 	mvn	r3, #1
c043fac0:	e28d100c 	add	r1, sp, #12
c043fac4:	e5cd300f 	strb	r3, [sp, #15]
c043fac8:	e5cd700d 	strb	r7, [sp, #13]
c043facc:	e5cd600e 	strb	r6, [sp, #14]
c043fad0:	e5cd5010 	strb	r5, [sp, #16]
c043fad4:	e5cdb011 	strb	fp, [sp, #17]
c043fad8:	ebfff7aa 	bl	0xc043d988
c043fadc:	e59d3004 	ldr	r3, [sp, #4]
c043fae0:	e1a00003 	mov	r0, r3
c043fae4:	ebf4b7cd 	bl	0xc016da20
c043fae8:	e3a02005 	mov	r2, #5
c043faec:	e5940000 	ldr	r0, [r4]
c043faf0:	e3a03053 	mov	r3, #83	@ 0x53
c043faf4:	e28d100c 	add	r1, sp, #12
c043faf8:	e5cd300d 	strb	r3, [sp, #13]
c043fafc:	e5cd900e 	strb	r9, [sp, #14]
c043fb00:	e3a03041 	mov	r3, #65	@ 0x41
c043fb04:	e5cd800f 	strb	r8, [sp, #15]
c043fb08:	e5cd3010 	strb	r3, [sp, #16]
c043fb0c:	e3a0304c 	mov	r3, #76	@ 0x4c
c043fb10:	e5cd3011 	strb	r3, [sp, #17]
c043fb14:	ebfff79b 	bl	0xc043d988
c043fb18:	e3a02005 	mov	r2, #5
c043fb1c:	e5940000 	ldr	r0, [r4]
c043fb20:	e3a03053 	mov	r3, #83	@ 0x53
c043fb24:	e28d100c 	add	r1, sp, #12
c043fb28:	e5cd300d 	strb	r3, [sp, #13]
c043fb2c:	e5cd900e 	strb	r9, [sp, #14]
c043fb30:	e3e0303c 	mvn	r3, #60	@ 0x3c
c043fb34:	e5cd800f 	strb	r8, [sp, #15]
c043fb38:	e5cd3011 	strb	r3, [sp, #17]
c043fb3c:	e5cda010 	strb	sl, [sp, #16]
c043fb40:	ebfff790 	bl	0xc043d988
c043fb44:	e59f3018 	ldr	r3, [pc, #24]	@ 0xc043fb64
c043fb48:	e59d201c 	ldr	r2, [sp, #28]
c043fb4c:	e5933000 	ldr	r3, [r3]
c043fb50:	e1520003 	cmp	r2, r3
c043fb54:	0a000000 	beq	0xc043fb5c
c043fb58:	ebf36593 	bl	0xc01191ac
c043fb5c:	e28dd024 	add	sp, sp, #36	@ 0x24
c043fb60:	e8bd8ff0 	pop	{r4, r5, r6, r7, r8, r9, sl, fp, pc}
c043fb64:	c0a04e08 	adcgt	r4, r0, r8, lsl #28
c043fb68:	c0a5d4d0 	ldrdgt	sp, [r5], r0	@ <UNPREDICTABLE>
c043fb6c:	e59f3174 	ldr	r3, [pc, #372]	@ 0xc043fce8
c043fb70:	e92d4ff7 	push	{r0, r1, r2, r4, r5, r6, r7, r8, r9, sl, fp, lr}
c043fb74:	e1a08000 	mov	r8, r0
c043fb78:	e1a09001 	mov	r9, r1
c043fb7c:	e593001c 	ldr	r0, [r3, #28]
c043fb80:	e3a01d37 	mov	r1, #3520	@ 0xdc0
c043fb84:	ebf62791 	bl	0xc01c99d0
c043fb88:	e2504000 	subs	r4, r0, #0
c043fb8c:	03e0a00b 	mvneq	sl, #11
c043fb90:	0a000021 	beq	0xc043fc1c
c043fb94:	e59f3150 	ldr	r3, [pc, #336]	@ 0xc043fcec
c043fb98:	e3a07000 	mov	r7, #0
c043fb9c:	e5932000 	ldr	r2, [r3]
c043fba0:	e1a06003 	mov	r6, r3
c043fba4:	e5d25024 	ldrb	r5, [r2, #36]	@ 0x24
c043fba8:	e5d22027 	ldrb	r2, [r2, #39]	@ 0x27
c043fbac:	e0855002 	add	r5, r5, r2
c043fbb0:	e1a05085 	lsl	r5, r5, #1
c043fbb4:	e1570005 	cmp	r7, r5
c043fbb8:	0a000009 	beq	0xc043fbe4
c043fbbc:	e3a03050 	mov	r3, #80	@ 0x50
c043fbc0:	e1a02004 	mov	r2, r4
c043fbc4:	e3a01d05 	mov	r1, #320	@ 0x140
c043fbc8:	e1a00008 	mov	r0, r8
c043fbcc:	ebfff757 	bl	0xc043d930
c043fbd0:	e250a000 	subs	sl, r0, #0
c043fbd4:	ba00000e 	blt	0xc043fc14
c043fbd8:	e5d43000 	ldrb	r3, [r4]
c043fbdc:	e3530010 	cmp	r3, #16
c043fbe0:	1a000010 	bne	0xc043fc28
c043fbe4:	e5963000 	ldr	r3, [r6]
c043fbe8:	e3a05000 	mov	r5, #0
c043fbec:	e59f70f8 	ldr	r7, [pc, #248]	@ 0xc043fcec
c043fbf0:	e1a06005 	mov	r6, r5
c043fbf4:	e5d33024 	ldrb	r3, [r3, #36]	@ 0x24
c043fbf8:	e1a03083 	lsl	r3, r3, #1
c043fbfc:	e58d3004 	str	r3, [sp, #4]
c043fc00:	e5973000 	ldr	r3, [r7]
c043fc04:	e5d33024 	ldrb	r3, [r3, #36]	@ 0x24
c043fc08:	e1550003 	cmp	r5, r3
c043fc0c:	ba00000c 	blt	0xc043fc44
c043fc10:	e3a0a000 	mov	sl, #0
c043fc14:	e1a00004 	mov	r0, r4
c043fc18:	ebf6240e 	bl	0xc01c8c58
c043fc1c:	e1a0000a 	mov	r0, sl
c043fc20:	e28dd00c 	add	sp, sp, #12
c043fc24:	e8bd8ff0 	pop	{r4, r5, r6, r7, r8, r9, sl, fp, pc}
c043fc28:	e2877001 	add	r7, r7, #1
c043fc2c:	e3a00001 	mov	r0, #1
c043fc30:	ebf4b77a 	bl	0xc016da20
c043fc34:	e1550007 	cmp	r5, r7
c043fc38:	aaffffdd 	bge	0xc043fbb4
c043fc3c:	e3e0a000 	mvn	sl, #0
c043fc40:	eafffff3 	b	0xc043fc14
c043fc44:	e3a03050 	mov	r3, #80	@ 0x50
c043fc48:	e1a02004 	mov	r2, r4
c043fc4c:	e3a01d05 	mov	r1, #320	@ 0x140
c043fc50:	e1a00008 	mov	r0, r8
c043fc54:	ebfff735 	bl	0xc043d930
c043fc58:	e250a000 	subs	sl, r0, #0
c043fc5c:	baffffec 	blt	0xc043fc14
c043fc60:	e5d43000 	ldrb	r3, [r4]
c043fc64:	e3530013 	cmp	r3, #19
c043fc68:	1a000016 	bne	0xc043fcc8
c043fc6c:	e5d43001 	ldrb	r3, [r4, #1]
c043fc70:	e2840004 	add	r0, r4, #4
c043fc74:	e5d4e002 	ldrb	lr, [r4, #2]
c043fc78:	e3a01000 	mov	r1, #0
c043fc7c:	e2433003 	sub	r3, r3, #3
c043fc80:	e5d4a003 	ldrb	sl, [r4, #3]
c043fc84:	e0833fa3 	add	r3, r3, r3, lsr #31
c043fc88:	e1a030c3 	asr	r3, r3, #1
c043fc8c:	e1510003 	cmp	r1, r3
c043fc90:	e2800002 	add	r0, r0, #2
c043fc94:	a2855001 	addge	r5, r5, #1
c043fc98:	aaffffd8 	bge	0xc043fc00
c043fc9c:	e5972000 	ldr	r2, [r7]
c043fca0:	e550b002 	ldrb	fp, [r0, #-2]
c043fca4:	e5d2c025 	ldrb	ip, [r2, #37]	@ 0x25
c043fca8:	e081200a 	add	r2, r1, sl
c043fcac:	e2811001 	add	r1, r1, #1
c043fcb0:	e02c2e9c 	mla	ip, ip, lr, r2
c043fcb4:	e5502001 	ldrb	r2, [r0, #-1]
c043fcb8:	e182240b 	orr	r2, r2, fp, lsl #8
c043fcbc:	e6bf2072 	sxth	r2, r2
c043fcc0:	e789210c 	str	r2, [r9, ip, lsl #2]
c043fcc4:	eafffff0 	b	0xc043fc8c
c043fcc8:	e3a00001 	mov	r0, #1
c043fccc:	e2866001 	add	r6, r6, #1
c043fcd0:	ebf4b752 	bl	0xc016da20
c043fcd4:	e59d3004 	ldr	r3, [sp, #4]
c043fcd8:	e1530006 	cmp	r3, r6
c043fcdc:	aaffffc7 	bge	0xc043fc00
c043fce0:	e3e0a001 	mvn	sl, #1
c043fce4:	eaffffca 	b	0xc043fc14
c043fce8:	c08272d0 	ldrdgt	r7, [r2], r0
c043fcec:	c0a5d4d0 	ldrdgt	sp, [r5], r0	@ <UNPREDICTABLE>
c043fcf0:	e59f2268 	ldr	r2, [pc, #616]	@ 0xc043ff60
c043fcf4:	e92d4ff0 	push	{r4, r5, r6, r7, r8, r9, sl, fp, lr}
c043fcf8:	e24dd014 	sub	sp, sp, #20
c043fcfc:	e5923000 	ldr	r3, [r2]
c043fd00:	e59f525c 	ldr	r5, [pc, #604]	@ 0xc043ff64
c043fd04:	e58d2000 	str	r2, [sp]
c043fd08:	e58d300c 	str	r3, [sp, #12]
c043fd0c:	e5953000 	ldr	r3, [r5]
c043fd10:	e1530001 	cmp	r3, r1
c043fd14:	03a08000 	moveq	r8, #0
c043fd18:	0a000023 	beq	0xc043fdac
c043fd1c:	e3510002 	cmp	r1, #2
c043fd20:	e1a0a001 	mov	sl, r1
c043fd24:	c3e08015 	mvngt	r8, #21
c043fd28:	ca00001f 	bgt	0xc043fdac
c043fd2c:	e3510000 	cmp	r1, #0
c043fd30:	e1a07000 	mov	r7, r0
c043fd34:	1a00002c 	bne	0xc043fdec
c043fd38:	e3a03001 	mov	r3, #1
c043fd3c:	e28d200a 	add	r2, sp, #10
c043fd40:	e3a010f1 	mov	r1, #241	@ 0xf1
c043fd44:	e3a04006 	mov	r4, #6
c043fd48:	ebfff6f8 	bl	0xc043d930
c043fd4c:	e5dd300a 	ldrb	r3, [sp, #10]
c043fd50:	e3c3305c 	bic	r3, r3, #92	@ 0x5c
c043fd54:	e3833004 	orr	r3, r3, #4
c043fd58:	e5cd300a 	strb	r3, [sp, #10]
c043fd5c:	e3a03001 	mov	r3, #1
c043fd60:	e28d200a 	add	r2, sp, #10
c043fd64:	e3a010f1 	mov	r1, #241	@ 0xf1
c043fd68:	e1a00007 	mov	r0, r7
c043fd6c:	ebfff6fa 	bl	0xc043d95c
c043fd70:	e3a0000a 	mov	r0, #10
c043fd74:	ebf4b729 	bl	0xc016da20
c043fd78:	e3a03001 	mov	r3, #1
c043fd7c:	e3a010f1 	mov	r1, #241	@ 0xf1
c043fd80:	e1a00007 	mov	r0, r7
c043fd84:	e28d200b 	add	r2, sp, #11
c043fd88:	ebfff6e8 	bl	0xc043d930
c043fd8c:	e5dd200b 	ldrb	r2, [sp, #11]
c043fd90:	e1a08000 	mov	r8, r0
c043fd94:	e5dd300a 	ldrb	r3, [sp, #10]
c043fd98:	e1520003 	cmp	r2, r3
c043fd9c:	0a000009 	beq	0xc043fdc8
c043fda0:	e2544001 	subs	r4, r4, #1
c043fda4:	1affffec 	bne	0xc043fd5c
c043fda8:	e3e08004 	mvn	r8, #4
c043fdac:	e59d3000 	ldr	r3, [sp]
c043fdb0:	e1a00008 	mov	r0, r8
c043fdb4:	e59d200c 	ldr	r2, [sp, #12]
c043fdb8:	e5933000 	ldr	r3, [r3]
c043fdbc:	e1520003 	cmp	r2, r3
c043fdc0:	0a000064 	beq	0xc043ff58
c043fdc4:	ebf364f8 	bl	0xc01191ac
c043fdc8:	e5950004 	ldr	r0, [r5, #4]
c043fdcc:	e3500000 	cmp	r0, #0
c043fdd0:	0a000002 	beq	0xc043fde0
c043fdd4:	ebf6239f 	bl	0xc01c8c58
c043fdd8:	e3a03000 	mov	r3, #0
c043fddc:	e5853004 	str	r3, [r5, #4]
c043fde0:	e3a03000 	mov	r3, #0
c043fde4:	e5853000 	str	r3, [r5]
c043fde8:	eaffffef 	b	0xc043fdac
c043fdec:	e2433001 	sub	r3, r3, #1
c043fdf0:	e3530001 	cmp	r3, #1
c043fdf4:	9a000052 	bls	0xc043ff44
c043fdf8:	e3a03001 	mov	r3, #1
c043fdfc:	e28d200a 	add	r2, sp, #10
c043fe00:	e3a010f1 	mov	r1, #241	@ 0xf1
c043fe04:	e3a04006 	mov	r4, #6
c043fe08:	ebfff6c8 	bl	0xc043d930
c043fe0c:	e5dd300a 	ldrb	r3, [sp, #10]
c043fe10:	e3c3305c 	bic	r3, r3, #92	@ 0x5c
c043fe14:	e3833058 	orr	r3, r3, #88	@ 0x58
c043fe18:	e5cd300a 	strb	r3, [sp, #10]
c043fe1c:	e3a03001 	mov	r3, #1
c043fe20:	e28d200a 	add	r2, sp, #10
c043fe24:	e3a010f1 	mov	r1, #241	@ 0xf1
c043fe28:	e1a00007 	mov	r0, r7
c043fe2c:	ebfff6ca 	bl	0xc043d95c
c043fe30:	e3a0000a 	mov	r0, #10
c043fe34:	ebf4b6f9 	bl	0xc016da20
c043fe38:	e3a03001 	mov	r3, #1
c043fe3c:	e3a010f1 	mov	r1, #241	@ 0xf1
c043fe40:	e1a00007 	mov	r0, r7
c043fe44:	e28d200b 	add	r2, sp, #11
c043fe48:	ebfff6b8 	bl	0xc043d930
c043fe4c:	e5dd200b 	ldrb	r2, [sp, #11]
c043fe50:	e5dd300a 	ldrb	r3, [sp, #10]
c043fe54:	e1520003 	cmp	r2, r3
c043fe58:	0a000002 	beq	0xc043fe68
c043fe5c:	e2544001 	subs	r4, r4, #1
c043fe60:	1affffed 	bne	0xc043fe1c
c043fe64:	eaffffcf 	b	0xc043fda8
c043fe68:	e5d73025 	ldrb	r3, [r7, #37]	@ 0x25
c043fe6c:	e3a01d33 	mov	r1, #3264	@ 0xcc0
c043fe70:	e5d7b024 	ldrb	fp, [r7, #36]	@ 0x24
c043fe74:	e3a06005 	mov	r6, #5
c043fe78:	e16b038b 	smulbb	fp, fp, r3
c043fe7c:	e1a0910b 	lsl	r9, fp, #2
c043fe80:	e1a00009 	mov	r0, r9
c043fe84:	ebf6266c 	bl	0xc01c983c
c043fe88:	e1a02009 	mov	r2, r9
c043fe8c:	e3a01000 	mov	r1, #0
c043fe90:	e5850004 	str	r0, [r5, #4]
c043fe94:	eb082331 	bl	0xc0648b60
c043fe98:	e3a01d33 	mov	r1, #3264	@ 0xcc0
c043fe9c:	e1a00009 	mov	r0, r9
c043fea0:	ebf62665 	bl	0xc01c983c
c043fea4:	e0803009 	add	r3, r0, r9
c043fea8:	e1a04000 	mov	r4, r0
c043feac:	e1a02009 	mov	r2, r9
c043feb0:	e3a01000 	mov	r1, #0
c043feb4:	e1a00004 	mov	r0, r4
c043feb8:	e58d3004 	str	r3, [sp, #4]
c043febc:	eb082327 	bl	0xc0648b60
c043fec0:	e1a01004 	mov	r1, r4
c043fec4:	e1a00007 	mov	r0, r7
c043fec8:	ebffff27 	bl	0xc043fb6c
c043fecc:	e2508000 	subs	r8, r0, #0
c043fed0:	ba00001e 	blt	0xc043ff50
c043fed4:	e59d3004 	ldr	r3, [sp, #4]
c043fed8:	e1a02004 	mov	r2, r4
c043fedc:	e1530002 	cmp	r3, r2
c043fee0:	1a000009 	bne	0xc043ff0c
c043fee4:	e2566001 	subs	r6, r6, #1
c043fee8:	1affffef 	bne	0xc043feac
c043feec:	e156000b 	cmp	r6, fp
c043fef0:	1a00000c 	bne	0xc043ff28
c043fef4:	e1a00004 	mov	r0, r4
c043fef8:	e585a000 	str	sl, [r5]
c043fefc:	e3500000 	cmp	r0, #0
c043ff00:	0affffa9 	beq	0xc043fdac
c043ff04:	ebf62353 	bl	0xc01c8c58
c043ff08:	eaffffa7 	b	0xc043fdac
c043ff0c:	e595c004 	ldr	ip, [r5, #4]
c043ff10:	e0420004 	sub	r0, r2, r4
c043ff14:	e492e004 	ldr	lr, [r2], #4
c043ff18:	e79c1000 	ldr	r1, [ip, r0]
c043ff1c:	e081100e 	add	r1, r1, lr
c043ff20:	e78c1000 	str	r1, [ip, r0]
c043ff24:	eaffffec 	b	0xc043fedc
c043ff28:	e5957004 	ldr	r7, [r5, #4]
c043ff2c:	e3a01005 	mov	r1, #5
c043ff30:	e7970106 	ldr	r0, [r7, r6, lsl #2]
c043ff34:	eb0820e5 	bl	0xc06482d0
c043ff38:	e7870106 	str	r0, [r7, r6, lsl #2]
c043ff3c:	e2866001 	add	r6, r6, #1
c043ff40:	eaffffe9 	b	0xc043feec
c043ff44:	e3a00000 	mov	r0, #0
c043ff48:	e1a08000 	mov	r8, r0
c043ff4c:	eaffffe9 	b	0xc043fef8
c043ff50:	e1a00004 	mov	r0, r4
c043ff54:	eaffffe8 	b	0xc043fefc
c043ff58:	e28dd014 	add	sp, sp, #20
c043ff5c:	e8bd8ff0 	pop	{r4, r5, r6, r7, r8, r9, sl, fp, pc}
c043ff60:	c0a04e08 	adcgt	r4, r0, r8, lsl #28
c043ff64:	c0a5d4dc 	ldrdgt	sp, [r5], ip	@ <UNPREDICTABLE>
c043ff68:	e92d4070 	push	{r4, r5, r6, lr}
c043ff6c:	e59f4070 	ldr	r4, [pc, #112]	@ 0xc043ffe4
c043ff70:	e5943000 	ldr	r3, [r4]
c043ff74:	e3530000 	cmp	r3, #0
c043ff78:	0a000017 	beq	0xc043ffdc
c043ff7c:	e1a06000 	mov	r6, r0
c043ff80:	e1a05001 	mov	r5, r1
c043ff84:	ebfffef8 	bl	0xc043fb6c
c043ff88:	e3500000 	cmp	r0, #0
c043ff8c:	b8bd8070 	poplt	{r4, r5, r6, pc}
c043ff90:	e5943000 	ldr	r3, [r4]
c043ff94:	e3530002 	cmp	r3, #2
c043ff98:	0a000001 	beq	0xc043ffa4
c043ff9c:	e5940000 	ldr	r0, [r4]
c043ffa0:	e8bd8070 	pop	{r4, r5, r6, pc}
c043ffa4:	e5d62025 	ldrb	r2, [r6, #37]	@ 0x25
c043ffa8:	e5d63024 	ldrb	r3, [r6, #36]	@ 0x24
c043ffac:	e1630283 	smulbb	r3, r3, r2
c043ffb0:	e1a02005 	mov	r2, r5
c043ffb4:	e0853103 	add	r3, r5, r3, lsl #2
c043ffb8:	e1520003 	cmp	r2, r3
c043ffbc:	0afffff6 	beq	0xc043ff9c
c043ffc0:	e5940004 	ldr	r0, [r4, #4]
c043ffc4:	e0421005 	sub	r1, r2, r5
c043ffc8:	e7901001 	ldr	r1, [r0, r1]
c043ffcc:	e5920000 	ldr	r0, [r2]
c043ffd0:	e0411000 	sub	r1, r1, r0
c043ffd4:	e4821004 	str	r1, [r2], #4
c043ffd8:	eafffff6 	b	0xc043ffb8
c043ffdc:	e3e00046 	mvn	r0, #70	@ 0x46
c043ffe0:	e8bd8070 	pop	{r4, r5, r6, pc}
c043ffe4:	c0a5d4dc 	ldrdgt	sp, [r5], ip	@ <UNPREDICTABLE>
c043ffe8:	e92d4030 	push	{r4, r5, lr}
c043ffec:	e24dd02c 	sub	sp, sp, #44	@ 0x2c
c043fff0:	e59f5170 	ldr	r5, [pc, #368]	@ 0xc0440168
c043fff4:	e5cd300b 	strb	r3, [sp, #11]
c043fff8:	e59d3038 	ldr	r3, [sp, #56]	@ 0x38
c043fffc:	e5cd2008 	strb	r2, [sp, #8]
c0440000:	e59d203c 	ldr	r2, [sp, #60]	@ 0x3c
c0440004:	e5cd300c 	strb	r3, [sp, #12]
c0440008:	e59d3044 	ldr	r3, [sp, #68]	@ 0x44
c044000c:	e5950000 	ldr	r0, [r5]
c0440010:	e5cd2009 	strb	r2, [sp, #9]
c0440014:	e59d2040 	ldr	r2, [sp, #64]	@ 0x40
c0440018:	e5cd300d 	strb	r3, [sp, #13]
c044001c:	e59d3048 	ldr	r3, [sp, #72]	@ 0x48
c0440020:	e58d0024 	str	r0, [sp, #36]	@ 0x24
c0440024:	e3a00006 	mov	r0, #6
c0440028:	e5cd1007 	strb	r1, [sp, #7]
c044002c:	e28d1004 	add	r1, sp, #4
c0440030:	e5cd0004 	strb	r0, [sp, #4]
c0440034:	e3a0000a 	mov	r0, #10
c0440038:	e5cd200a 	strb	r2, [sp, #10]
c044003c:	e3a0200b 	mov	r2, #11
c0440040:	e5cd0005 	strb	r0, [sp, #5]
c0440044:	e3a00000 	mov	r0, #0
c0440048:	e5cd0006 	strb	r0, [sp, #6]
c044004c:	e1cd00b2 	strh	r0, [sp, #2]
c0440050:	e28d0002 	add	r0, sp, #2
c0440054:	e5cd300e 	strb	r3, [sp, #14]
c0440058:	ebfff78f 	bl	0xc043de9c
c044005c:	e5dd3005 	ldrb	r3, [sp, #5]
c0440060:	e28d2028 	add	r2, sp, #40	@ 0x28
c0440064:	e28d0004 	add	r0, sp, #4
c0440068:	e0823003 	add	r3, r2, r3
c044006c:	e1dd20b2 	ldrh	r2, [sp, #2]
c0440070:	e5432023 	strb	r2, [r3, #-35]	@ 0xffffffdd
c0440074:	ebfff862 	bl	0xc043e204
c0440078:	e3500000 	cmp	r0, #0
c044007c:	1a000005 	bne	0xc0440098
c0440080:	e3e00004 	mvn	r0, #4
c0440084:	e59d2024 	ldr	r2, [sp, #36]	@ 0x24
c0440088:	e5953000 	ldr	r3, [r5]
c044008c:	e1520003 	cmp	r2, r3
c0440090:	0a000032 	beq	0xc0440160
c0440094:	ebf36444 	bl	0xc01191ac
c0440098:	ebfff7be 	bl	0xc043df98
c044009c:	e3500000 	cmp	r0, #0
c04400a0:	13a04005 	movne	r4, #5
c04400a4:	0afffff5 	beq	0xc0440080
c04400a8:	e3a00014 	mov	r0, #20
c04400ac:	ebf4b65b 	bl	0xc016da20
c04400b0:	ebfff7d1 	bl	0xc043dffc
c04400b4:	e3500000 	cmp	r0, #0
c04400b8:	0a000023 	beq	0xc044014c
c04400bc:	e3a02020 	mov	r2, #32
c04400c0:	e3a01000 	mov	r1, #0
c04400c4:	e28d0004 	add	r0, sp, #4
c04400c8:	eb0822a4 	bl	0xc0648b60
c04400cc:	e3a02003 	mov	r2, #3
c04400d0:	e3a03006 	mov	r3, #6
c04400d4:	e28d1004 	add	r1, sp, #4
c04400d8:	e28d0002 	add	r0, sp, #2
c04400dc:	e5cd3004 	strb	r3, [sp, #4]
c04400e0:	e3a03002 	mov	r3, #2
c04400e4:	e5cd3005 	strb	r3, [sp, #5]
c04400e8:	e3e0307f 	mvn	r3, #127	@ 0x7f
c04400ec:	e5cd3006 	strb	r3, [sp, #6]
c04400f0:	e3a03000 	mov	r3, #0
c04400f4:	e1cd30b2 	strh	r3, [sp, #2]
c04400f8:	ebfff767 	bl	0xc043de9c
c04400fc:	e5dd3005 	ldrb	r3, [sp, #5]
c0440100:	e28d2028 	add	r2, sp, #40	@ 0x28
c0440104:	e28d0004 	add	r0, sp, #4
c0440108:	e0823003 	add	r3, r2, r3
c044010c:	e1dd20b2 	ldrh	r2, [sp, #2]
c0440110:	e5432023 	strb	r2, [r3, #-35]	@ 0xffffffdd
c0440114:	ebfff83a 	bl	0xc043e204
c0440118:	e3500000 	cmp	r0, #0
c044011c:	0affffd7 	beq	0xc0440080
c0440120:	ebfff79c 	bl	0xc043df98
c0440124:	e3500000 	cmp	r0, #0
c0440128:	0affffd4 	beq	0xc0440080
c044012c:	e3a00014 	mov	r0, #20
c0440130:	ebf4b63a 	bl	0xc016da20
c0440134:	ebfff7b0 	bl	0xc043dffc
c0440138:	e3500000 	cmp	r0, #0
c044013c:	1a000005 	bne	0xc0440158
c0440140:	e2544001 	subs	r4, r4, #1
c0440144:	1afffff8 	bne	0xc044012c
c0440148:	eaffffcc 	b	0xc0440080
c044014c:	e2544001 	subs	r4, r4, #1
c0440150:	1affffd4 	bne	0xc04400a8
c0440154:	eaffffc9 	b	0xc0440080
c0440158:	e3a00000 	mov	r0, #0
c044015c:	eaffffc8 	b	0xc0440084
c0440160:	e28dd02c 	add	sp, sp, #44	@ 0x2c
c0440164:	e8bd8030 	pop	{r4, r5, pc}
c0440168:	c0a04e08 	adcgt	r4, r0, r8, lsl #28
c044016c:	e92d4073 	push	{r0, r1, r4, r5, r6, lr}
c0440170:	e1a05001 	mov	r5, r1
c0440174:	e59f60fc 	ldr	r6, [pc, #252]	@ 0xc0440278
c0440178:	e1a0200d 	mov	r2, sp
c044017c:	e3a01e13 	mov	r1, #304	@ 0x130
c0440180:	e1a04000 	mov	r4, r0
c0440184:	e5963000 	ldr	r3, [r6]
c0440188:	e58d3004 	str	r3, [sp, #4]
c044018c:	e3a03001 	mov	r3, #1
c0440190:	ebfff5e6 	bl	0xc043d930
c0440194:	e3500000 	cmp	r0, #0
c0440198:	ba000022 	blt	0xc0440228
c044019c:	e5dd3000 	ldrb	r3, [sp]
c04401a0:	e3550000 	cmp	r5, #0
c04401a4:	e1a0200d 	mov	r2, sp
c04401a8:	e3a01e13 	mov	r1, #304	@ 0x130
c04401ac:	13833001 	orrne	r3, r3, #1
c04401b0:	03c33001 	biceq	r3, r3, #1
c04401b4:	e1a00004 	mov	r0, r4
c04401b8:	e5cd3000 	strb	r3, [sp]
c04401bc:	e3a03001 	mov	r3, #1
c04401c0:	ebfff5e5 	bl	0xc043d95c
c04401c4:	e3500000 	cmp	r0, #0
c04401c8:	ba000016 	blt	0xc0440228
c04401cc:	e3a03004 	mov	r3, #4
c04401d0:	e1a0200d 	mov	r2, sp
c04401d4:	e3a01e13 	mov	r1, #304	@ 0x130
c04401d8:	e1a00004 	mov	r0, r4
c04401dc:	ebfff5d3 	bl	0xc043d930
c04401e0:	e3500000 	cmp	r0, #0
c04401e4:	ba00000f 	blt	0xc0440228
c04401e8:	e3550000 	cmp	r5, #0
c04401ec:	e5dd3000 	ldrb	r3, [sp]
c04401f0:	0a000017 	beq	0xc0440254
c04401f4:	e3130001 	tst	r3, #1
c04401f8:	0a00000f 	beq	0xc044023c
c04401fc:	e5dd3001 	ldrb	r3, [sp, #1]
c0440200:	e3530000 	cmp	r3, #0
c0440204:	0a00000c 	beq	0xc044023c
c0440208:	e3a02001 	mov	r2, #1
c044020c:	e5c422e0 	strb	r2, [r4, #736]	@ 0x2e0
c0440210:	e5dd2002 	ldrb	r2, [sp, #2]
c0440214:	e5c432e1 	strb	r3, [r4, #737]	@ 0x2e1
c0440218:	e5dd3003 	ldrb	r3, [sp, #3]
c044021c:	e1833402 	orr	r3, r3, r2, lsl #8
c0440220:	e58432e4 	str	r3, [r4, #740]	@ 0x2e4
c0440224:	e3a00000 	mov	r0, #0
c0440228:	e59d2004 	ldr	r2, [sp, #4]
c044022c:	e5963000 	ldr	r3, [r6]
c0440230:	e1520003 	cmp	r2, r3
c0440234:	0a00000d 	beq	0xc0440270
c0440238:	ebf363db 	bl	0xc01191ac
c044023c:	e3a03000 	mov	r3, #0
c0440240:	e3e00015 	mvn	r0, #21
c0440244:	e5c432e0 	strb	r3, [r4, #736]	@ 0x2e0
c0440248:	e5c432e1 	strb	r3, [r4, #737]	@ 0x2e1
c044024c:	e58432e4 	str	r3, [r4, #740]	@ 0x2e4
c0440250:	eafffff4 	b	0xc0440228
c0440254:	e3130001 	tst	r3, #1
c0440258:	05c452e0 	strbeq	r5, [r4, #736]	@ 0x2e0
c044025c:	05c452e1 	strbeq	r5, [r4, #737]	@ 0x2e1
c0440260:	058452e4 	streq	r5, [r4, #740]	@ 0x2e4
c0440264:	0affffee 	beq	0xc0440224
c0440268:	e1a00005 	mov	r0, r5
c044026c:	eaffffed 	b	0xc0440228
c0440270:	e28dd008 	add	sp, sp, #8
c0440274:	e8bd8070 	pop	{r4, r5, r6, pc}
c0440278:	c0a04e08 	adcgt	r4, r0, r8, lsl #28
c044027c:	e59f30ac 	ldr	r3, [pc, #172]	@ 0xc0440330
c0440280:	e92d40f7 	push	{r0, r1, r2, r4, r5, r6, r7, lr}
c0440284:	e3a04002 	mov	r4, #2
c0440288:	e59f50a4 	ldr	r5, [pc, #164]	@ 0xc0440334
c044028c:	e1a06003 	mov	r6, r3
c0440290:	e5932000 	ldr	r2, [r3]
c0440294:	e1a07005 	mov	r7, r5
c0440298:	e58d2004 	str	r2, [sp, #4]
c044029c:	e5953000 	ldr	r3, [r5]
c04402a0:	e28d1003 	add	r1, sp, #3
c04402a4:	e1a00004 	mov	r0, r4
c04402a8:	e0833004 	add	r3, r3, r4
c04402ac:	e5d32192 	ldrb	r2, [r3, #402]	@ 0x192
c04402b0:	e5d331a6 	ldrb	r3, [r3, #422]	@ 0x1a6
c04402b4:	e3520000 	cmp	r2, #0
c04402b8:	13a02080 	movne	r2, #128	@ 0x80
c04402bc:	03a02000 	moveq	r2, #0
c04402c0:	e1823003 	orr	r3, r2, r3
c04402c4:	e3a02001 	mov	r2, #1
c04402c8:	e5cd3002 	strb	r3, [sp, #2]
c04402cc:	ebfffa13 	bl	0xc043eb20
c04402d0:	e5dd2003 	ldrb	r2, [sp, #3]
c04402d4:	e5dd3002 	ldrb	r3, [sp, #2]
c04402d8:	e1520003 	cmp	r2, r3
c04402dc:	0a000003 	beq	0xc04402f0
c04402e0:	e3a02001 	mov	r2, #1
c04402e4:	e28d1002 	add	r1, sp, #2
c04402e8:	e1a00004 	mov	r0, r4
c04402ec:	ebfffa2e 	bl	0xc043ebac
c04402f0:	e2844001 	add	r4, r4, #1
c04402f4:	e3540008 	cmp	r4, #8
c04402f8:	1affffe7 	bne	0xc044029c
c04402fc:	e5970000 	ldr	r0, [r7]
c0440300:	e5d032e0 	ldrb	r3, [r0, #736]	@ 0x2e0
c0440304:	e3530000 	cmp	r3, #0
c0440308:	0a000001 	beq	0xc0440314
c044030c:	e3a01001 	mov	r1, #1
c0440310:	ebffff95 	bl	0xc044016c
c0440314:	e59d2004 	ldr	r2, [sp, #4]
c0440318:	e5963000 	ldr	r3, [r6]
c044031c:	e1520003 	cmp	r2, r3
c0440320:	0a000000 	beq	0xc0440328
c0440324:	ebf363a0 	bl	0xc01191ac
c0440328:	e28dd00c 	add	sp, sp, #12
c044032c:	e8bd80f0 	pop	{r4, r5, r6, r7, pc}
c0440330:	c0a04e08 	adcgt	r4, r0, r8, lsl #28
c0440334:	c0a5d4d0 	ldrdgt	sp, [r5], r0	@ <UNPREDICTABLE>
c0440338:	e92d47f3 	push	{r0, r1, r4, r5, r6, r7, r8, r9, sl, lr}
c044033c:	e1a02001 	mov	r2, r1
c0440340:	e59f50b0 	ldr	r5, [pc, #176]	@ 0xc04403f8
c0440344:	e1a04001 	mov	r4, r1
c0440348:	e2801fb9 	add	r1, r0, #740	@ 0x2e4
c044034c:	e5953000 	ldr	r3, [r5]
c0440350:	e1d110b0 	ldrh	r1, [r1]
c0440354:	e58d3004 	str	r3, [sp, #4]
c0440358:	e3a03000 	mov	r3, #0
c044035c:	e1cd30b2 	strh	r3, [sp, #2]
c0440360:	e3a03065 	mov	r3, #101	@ 0x65
c0440364:	ebfff571 	bl	0xc043d930
c0440368:	e2506000 	subs	r6, r0, #0
c044036c:	ba000019 	blt	0xc04403d8
c0440370:	e3a02064 	mov	r2, #100	@ 0x64
c0440374:	e1a01004 	mov	r1, r4
c0440378:	e28d0002 	add	r0, sp, #2
c044037c:	ebfff6c6 	bl	0xc043de9c
c0440380:	e5d42064 	ldrb	r2, [r4, #100]	@ 0x64
c0440384:	e5dd3002 	ldrb	r3, [sp, #2]
c0440388:	e1520003 	cmp	r2, r3
c044038c:	13e06004 	mvnne	r6, #4
c0440390:	1a000010 	bne	0xc04403d8
c0440394:	e59f8060 	ldr	r8, [pc, #96]	@ 0xc04403fc
c0440398:	e2847062 	add	r7, r4, #98	@ 0x62
c044039c:	e59f905c 	ldr	r9, [pc, #92]	@ 0xc0440400
c04403a0:	e284a00e 	add	sl, r4, #14
c04403a4:	e5d43002 	ldrb	r3, [r4, #2]
c04403a8:	e1a00008 	mov	r0, r8
c04403ac:	e5d41003 	ldrb	r1, [r4, #3]
c04403b0:	e2844002 	add	r4, r4, #2
c04403b4:	e1811403 	orr	r1, r1, r3, lsl #8
c04403b8:	e6bf1071 	sxth	r1, r1
c04403bc:	ebf45ba6 	bl	0xc015725c
c04403c0:	e15a0004 	cmp	sl, r4
c04403c4:	1afffff6 	bne	0xc04403a4
c04403c8:	e1a00009 	mov	r0, r9
c04403cc:	ebf45ba2 	bl	0xc015725c
c04403d0:	e1540007 	cmp	r4, r7
c04403d4:	1afffff1 	bne	0xc04403a0
c04403d8:	e59d2004 	ldr	r2, [sp, #4]
c04403dc:	e1a00006 	mov	r0, r6
c04403e0:	e5953000 	ldr	r3, [r5]
c04403e4:	e1520003 	cmp	r2, r3
c04403e8:	0a000000 	beq	0xc04403f0
c04403ec:	ebf3636e 	bl	0xc01191ac
c04403f0:	e28dd008 	add	sp, sp, #8
c04403f4:	e8bd87f0 	pop	{r4, r5, r6, r7, r8, r9, sl, pc}
c04403f8:	c0a04e08 	adcgt	r4, r0, r8, lsl #28
c04403fc:	c08027de 	ldrdgt	r2, [r0], lr
c0440400:	c08106b1 			@ <UNDEFINED> instruction: 0xc08106b1
c0440404:	e52de004 	push	{lr}		@ (str lr, [sp, #-4]!)
c0440408:	e1a0c001 	mov	ip, r1
c044040c:	e5903010 	ldr	r3, [r0, #16]
c0440410:	e1a01002 	mov	r1, r2
c0440414:	e1a0000c 	mov	r0, ip
c0440418:	e593e02c 	ldr	lr, [r3, #44]	@ 0x2c
c044041c:	e5932014 	ldr	r2, [r3, #20]
c0440420:	e1a0300e 	mov	r3, lr
c0440424:	e49de004 	pop	{lr}		@ (ldr lr, [sp], #4)
c0440428:	e12fff13 	bx	r3
c044042c:	e92d4ff0 	push	{r4, r5, r6, r7, r8, r9, sl, fp, lr}
c0440430:	e24dd024 	sub	sp, sp, #36	@ 0x24
c0440434:	e59fb1ec 	ldr	fp, [pc, #492]	@ 0xc0440628
c0440438:	e3a02005 	mov	r2, #5
c044043c:	e59f41e8 	ldr	r4, [pc, #488]	@ 0xc044062c
c0440440:	e28d1014 	add	r1, sp, #20
c0440444:	e3a05000 	mov	r5, #0
c0440448:	e3a08053 	mov	r8, #83	@ 0x53
c044044c:	e59b3000 	ldr	r3, [fp]
c0440450:	e3a07071 	mov	r7, #113	@ 0x71
c0440454:	e5940000 	ldr	r0, [r4]
c0440458:	e3a06023 	mov	r6, #35	@ 0x23
c044045c:	e58d5014 	str	r5, [sp, #20]
c0440460:	e3a0a003 	mov	sl, #3
c0440464:	e58d5018 	str	r5, [sp, #24]
c0440468:	e58d301c 	str	r3, [sp, #28]
c044046c:	e3e0305a 	mvn	r3, #90	@ 0x5a
c0440470:	e5cd8015 	strb	r8, [sp, #21]
c0440474:	e5cd3018 	strb	r3, [sp, #24]
c0440478:	e3a0303c 	mov	r3, #60	@ 0x3c
c044047c:	e5cd7016 	strb	r7, [sp, #22]
c0440480:	e5cd3019 	strb	r3, [sp, #25]
c0440484:	e5cd6017 	strb	r6, [sp, #23]
c0440488:	ebffffdd 	bl	0xc0440404
c044048c:	e3a02005 	mov	r2, #5
c0440490:	e5940000 	ldr	r0, [r4]
c0440494:	e3a03014 	mov	r3, #20
c0440498:	e28d1014 	add	r1, sp, #20
c044049c:	e5cd3018 	strb	r3, [sp, #24]
c04404a0:	e5cd8015 	strb	r8, [sp, #21]
c04404a4:	e3a03055 	mov	r3, #85	@ 0x55
c04404a8:	e5cd7016 	strb	r7, [sp, #22]
c04404ac:	e5cd3019 	strb	r3, [sp, #25]
c04404b0:	e5cd6017 	strb	r6, [sp, #23]
c04404b4:	ebffffd2 	bl	0xc0440404
c04404b8:	e3a02007 	mov	r2, #7
c04404bc:	e5940000 	ldr	r0, [r4]
c04404c0:	e3a03006 	mov	r3, #6
c04404c4:	e28d1014 	add	r1, sp, #20
c04404c8:	e5cd3016 	strb	r3, [sp, #22]
c04404cc:	e5cda015 	strb	sl, [sp, #21]
c04404d0:	e3e03003 	mvn	r3, #3
c04404d4:	e5cd501b 	strb	r5, [sp, #27]
c04404d8:	e5cd3017 	strb	r3, [sp, #23]
c04404dc:	e3a0305a 	mov	r3, #90	@ 0x5a
c04404e0:	e5cd3018 	strb	r3, [sp, #24]
c04404e4:	e3e03061 	mvn	r3, #97	@ 0x61
c04404e8:	e5cd3019 	strb	r3, [sp, #25]
c04404ec:	e3a0300a 	mov	r3, #10
c04404f0:	e5cd301a 	strb	r3, [sp, #26]
c04404f4:	ebffffc2 	bl	0xc0440404
c04404f8:	e2509000 	subs	r9, r0, #0
c04404fc:	e58db00c 	str	fp, [sp, #12]
c0440500:	aa000006 	bge	0xc0440520
c0440504:	e3e00000 	mvn	r0, #0
c0440508:	e59d300c 	ldr	r3, [sp, #12]
c044050c:	e59d201c 	ldr	r2, [sp, #28]
c0440510:	e5933000 	ldr	r3, [r3]
c0440514:	e1520003 	cmp	r2, r3
c0440518:	0a000040 	beq	0xc0440620
c044051c:	ebf36322 	bl	0xc01191ac
c0440520:	e59f0108 	ldr	r0, [pc, #264]	@ 0xc0440630
c0440524:	e3e0207c 	mvn	r2, #124	@ 0x7c
c0440528:	e1a0100a 	mov	r1, sl
c044052c:	e5903000 	ldr	r3, [r0]
c0440530:	e5c32001 	strb	r2, [r3, #1]
c0440534:	e3a02007 	mov	r2, #7
c0440538:	e5903000 	ldr	r3, [r0]
c044053c:	e5c32002 	strb	r2, [r3, #2]
c0440540:	e5903000 	ldr	r3, [r0]
c0440544:	e5c35003 	strb	r5, [r3, #3]
c0440548:	e5943000 	ldr	r3, [r4]
c044054c:	e5933010 	ldr	r3, [r3, #16]
c0440550:	e5932014 	ldr	r2, [r3, #20]
c0440554:	e58d2000 	str	r2, [sp]
c0440558:	e59f20d4 	ldr	r2, [pc, #212]	@ 0xc0440634
c044055c:	e593b030 	ldr	fp, [r3, #48]	@ 0x30
c0440560:	e3a03002 	mov	r3, #2
c0440564:	e5900000 	ldr	r0, [r0]
c0440568:	e5922000 	ldr	r2, [r2]
c044056c:	e12fff3b 	blx	fp
c0440570:	e3a02005 	mov	r2, #5
c0440574:	e3a03006 	mov	r3, #6
c0440578:	e250b000 	subs	fp, r0, #0
c044057c:	e28d1014 	add	r1, sp, #20
c0440580:	e5940000 	ldr	r0, [r4]
c0440584:	b3e09000 	mvnlt	r9, #0
c0440588:	e5cd3016 	strb	r3, [sp, #22]
c044058c:	e5cda015 	strb	sl, [sp, #21]
c0440590:	e3e03001 	mvn	r3, #1
c0440594:	e5cd5018 	strb	r5, [sp, #24]
c0440598:	e5cd3017 	strb	r3, [sp, #23]
c044059c:	e3e0305a 	mvn	r3, #90	@ 0x5a
c04405a0:	e5cd3019 	strb	r3, [sp, #25]
c04405a4:	ebffff96 	bl	0xc0440404
c04405a8:	e3790001 	cmn	r9, #1
c04405ac:	0affffd4 	beq	0xc0440504
c04405b0:	e3a02005 	mov	r2, #5
c04405b4:	e28d1014 	add	r1, sp, #20
c04405b8:	e5940000 	ldr	r0, [r4]
c04405bc:	e3a03041 	mov	r3, #65	@ 0x41
c04405c0:	e5cd8015 	strb	r8, [sp, #21]
c04405c4:	e5cd3018 	strb	r3, [sp, #24]
c04405c8:	e3a0304c 	mov	r3, #76	@ 0x4c
c04405cc:	e5cd7016 	strb	r7, [sp, #22]
c04405d0:	e5cd3019 	strb	r3, [sp, #25]
c04405d4:	e5cd6017 	strb	r6, [sp, #23]
c04405d8:	ebffff89 	bl	0xc0440404
c04405dc:	e3a02005 	mov	r2, #5
c04405e0:	e5940000 	ldr	r0, [r4]
c04405e4:	e3a0305a 	mov	r3, #90	@ 0x5a
c04405e8:	e28d1014 	add	r1, sp, #20
c04405ec:	e5cd3018 	strb	r3, [sp, #24]
c04405f0:	e5cd8015 	strb	r8, [sp, #21]
c04405f4:	e3e0303c 	mvn	r3, #60	@ 0x3c
c04405f8:	e5cd7016 	strb	r7, [sp, #22]
c04405fc:	e5cd3019 	strb	r3, [sp, #25]
c0440600:	e5cd6017 	strb	r6, [sp, #23]
c0440604:	ebffff7e 	bl	0xc0440404
c0440608:	e59f3024 	ldr	r3, [pc, #36]	@ 0xc0440634
c044060c:	e5933000 	ldr	r3, [r3]
c0440610:	e7d3000b 	ldrb	r0, [r3, fp]
c0440614:	e2200004 	eor	r0, r0, #4
c0440618:	e7e00150 	ubfx	r0, r0, #2, #1
c044061c:	eaffffb9 	b	0xc0440508
c0440620:	e28dd024 	add	sp, sp, #36	@ 0x24
c0440624:	e8bd8ff0 	pop	{r4, r5, r6, r7, r8, r9, sl, fp, pc}
c0440628:	c0a04e08 	adcgt	r4, r0, r8, lsl #28
c044062c:	c0a5d4d0 	ldrdgt	sp, [r5], r0	@ <UNPREDICTABLE>
c0440630:	c0a5d4cc 	adcgt	sp, r5, ip, asr #9
c0440634:	c0a5d4c8 	adcgt	sp, r5, r8, asr #9
c0440638:	e92d4010 	push	{r4, lr}
c044063c:	e59f4070 	ldr	r4, [pc, #112]	@ 0xc04406b4
c0440640:	e5940000 	ldr	r0, [r4]
c0440644:	ebfff0ce 	bl	0xc043c984
c0440648:	e5940000 	ldr	r0, [r4]
c044064c:	e5d0306c 	ldrb	r3, [r0, #108]	@ 0x6c
c0440650:	e3530000 	cmp	r3, #0
c0440654:	0a00000e 	beq	0xc0440694
c0440658:	e2800070 	add	r0, r0, #112	@ 0x70
c044065c:	eb088710 	bl	0xc06622a4
c0440660:	e5940000 	ldr	r0, [r4]
c0440664:	e5d01190 	ldrb	r1, [r0, #400]	@ 0x190
c0440668:	e3510000 	cmp	r1, #0
c044066c:	13a01001 	movne	r1, #1
c0440670:	ebfff597 	bl	0xc043dcd4
c0440674:	e3a00014 	mov	r0, #20
c0440678:	ebf4b4e8 	bl	0xc016da20
c044067c:	e3a01001 	mov	r1, #1
c0440680:	e5940000 	ldr	r0, [r4]
c0440684:	ebfff5c1 	bl	0xc043dd90
c0440688:	e5940000 	ldr	r0, [r4]
c044068c:	e2800070 	add	r0, r0, #112	@ 0x70
c0440690:	eb08856c 	bl	0xc0661c48
c0440694:	e5940000 	ldr	r0, [r4]
c0440698:	e2800070 	add	r0, r0, #112	@ 0x70
c044069c:	eb088700 	bl	0xc06622a4
c04406a0:	ebfffef5 	bl	0xc044027c
c04406a4:	e5940000 	ldr	r0, [r4]
c04406a8:	e2800070 	add	r0, r0, #112	@ 0x70
c04406ac:	e8bd4010 	pop	{r4, lr}
c04406b0:	ea088564 	b	0xc0661c48
c04406b4:	c0a5d4d0 	ldrdgt	sp, [r5], r0	@ <UNPREDICTABLE>
c04406b8:	e92d43f0 	push	{r4, r5, r6, r7, r8, r9, lr}
c04406bc:	e24dd014 	sub	sp, sp, #20
c04406c0:	e59f71c4 	ldr	r7, [pc, #452]	@ 0xc044088c
c04406c4:	e3a06e7d 	mov	r6, #2000	@ 0x7d0
c04406c8:	e59f51c0 	ldr	r5, [pc, #448]	@ 0xc0440890
c04406cc:	e59f41c0 	ldr	r4, [pc, #448]	@ 0xc0440894
c04406d0:	e5973000 	ldr	r3, [r7]
c04406d4:	e58d300c 	str	r3, [sp, #12]
c04406d8:	e3a03000 	mov	r3, #0
c04406dc:	e58d3000 	str	r3, [sp]
c04406e0:	e58d3004 	str	r3, [sp, #4]
c04406e4:	e58d3008 	str	r3, [sp, #8]
c04406e8:	e5953000 	ldr	r3, [r5]
c04406ec:	e5930100 	ldr	r0, [r3, #256]	@ 0x100
c04406f0:	ebf4b4ca 	bl	0xc016da20
c04406f4:	ebf3cc3f 	bl	0xc01337f8
c04406f8:	e2508000 	subs	r8, r0, #0
c04406fc:	0a000005 	beq	0xc0440718
c0440700:	e59d200c 	ldr	r2, [sp, #12]
c0440704:	e3a00000 	mov	r0, #0
c0440708:	e5973000 	ldr	r3, [r7]
c044070c:	e1520003 	cmp	r2, r3
c0440710:	0a00005b 	beq	0xc0440884
c0440714:	ebf362a4 	bl	0xc01191ac
c0440718:	e5950000 	ldr	r0, [r5]
c044071c:	e5d020fc 	ldrb	r2, [r0, #252]	@ 0xfc
c0440720:	e3520000 	cmp	r2, #0
c0440724:	0a000005 	beq	0xc0440740
c0440728:	ebffffc2 	bl	0xc0440638
c044072c:	e5953000 	ldr	r3, [r5]
c0440730:	e5c380fc 	strb	r8, [r3, #252]	@ 0xfc
c0440734:	e1a00006 	mov	r0, r6
c0440738:	ebf4b4b8 	bl	0xc016da20
c044073c:	eaffffec 	b	0xc04406f4
c0440740:	e5d020fd 	ldrb	r2, [r0, #253]	@ 0xfd
c0440744:	e3520000 	cmp	r2, #0
c0440748:	1afffff9 	bne	0xc0440734
c044074c:	e1d029b0 	ldrh	r2, [r0, #144]	@ 0x90
c0440750:	e3520000 	cmp	r2, #0
c0440754:	1afffff6 	bne	0xc0440734
c0440758:	e5948000 	ldr	r8, [r4]
c044075c:	e3580000 	cmp	r8, #0
c0440760:	15842000 	strne	r2, [r4]
c0440764:	1afffff2 	bne	0xc0440734
c0440768:	e2800070 	add	r0, r0, #112	@ 0x70
c044076c:	eb0886cc 	bl	0xc06622a4
c0440770:	e5953000 	ldr	r3, [r5]
c0440774:	e3a0200c 	mov	r2, #12
c0440778:	e1a00008 	mov	r0, r8
c044077c:	e5933010 	ldr	r3, [r3, #16]
c0440780:	e5939018 	ldr	r9, [r3, #24]
c0440784:	e5933014 	ldr	r3, [r3, #20]
c0440788:	e1a0100d 	mov	r1, sp
c044078c:	e12fff39 	blx	r9
c0440790:	e1a08000 	mov	r8, r0
c0440794:	e5950000 	ldr	r0, [r5]
c0440798:	e2800070 	add	r0, r0, #112	@ 0x70
c044079c:	eb088529 	bl	0xc0661c48
c04407a0:	e3580000 	cmp	r8, #0
c04407a4:	ba00002b 	blt	0xc0440858
c04407a8:	e5dd3001 	ldrb	r3, [sp, #1]
c04407ac:	e203300f 	and	r3, r3, #15
c04407b0:	e3530006 	cmp	r3, #6
c04407b4:	0a000027 	beq	0xc0440858
c04407b8:	e5d42004 	ldrb	r2, [r4, #4]
c04407bc:	e5dd300a 	ldrb	r3, [sp, #10]
c04407c0:	e1520003 	cmp	r2, r3
c04407c4:	1a00001f 	bne	0xc0440848
c04407c8:	e5d42005 	ldrb	r2, [r4, #5]
c04407cc:	e5dd300b 	ldrb	r3, [sp, #11]
c04407d0:	e1520003 	cmp	r2, r3
c04407d4:	1a00001b 	bne	0xc0440848
c04407d8:	e5950000 	ldr	r0, [r5]
c04407dc:	e2800070 	add	r0, r0, #112	@ 0x70
c04407e0:	eb0886af 	bl	0xc06622a4
c04407e4:	ebffff10 	bl	0xc044042c
c04407e8:	e5943008 	ldr	r3, [r4, #8]
c04407ec:	e2833001 	add	r3, r3, #1
c04407f0:	e5843008 	str	r3, [r4, #8]
c04407f4:	e3500001 	cmp	r0, #1
c04407f8:	e5950000 	ldr	r0, [r5]
c04407fc:	e2800070 	add	r0, r0, #112	@ 0x70
c0440800:	03a06e7d 	moveq	r6, #2000	@ 0x7d0
c0440804:	13a06f7d 	movne	r6, #500	@ 0x1f4
c0440808:	eb08850e 	bl	0xc0661c48
c044080c:	e5dd300a 	ldrb	r3, [sp, #10]
c0440810:	e5c43004 	strb	r3, [r4, #4]
c0440814:	e5dd300b 	ldrb	r3, [sp, #11]
c0440818:	e5c43005 	strb	r3, [r4, #5]
c044081c:	e5943008 	ldr	r3, [r4, #8]
c0440820:	e3530002 	cmp	r3, #2
c0440824:	da000004 	ble	0xc044083c
c0440828:	e3a06000 	mov	r6, #0
c044082c:	e5846008 	str	r6, [r4, #8]
c0440830:	ebffff80 	bl	0xc0440638
c0440834:	e5846008 	str	r6, [r4, #8]
c0440838:	e3a06e7d 	mov	r6, #2000	@ 0x7d0
c044083c:	e3a03000 	mov	r3, #0
c0440840:	e584300c 	str	r3, [r4, #12]
c0440844:	eaffffba 	b	0xc0440734
c0440848:	e3a03000 	mov	r3, #0
c044084c:	e3a06e7d 	mov	r6, #2000	@ 0x7d0
c0440850:	e5843008 	str	r3, [r4, #8]
c0440854:	eaffffec 	b	0xc044080c
c0440858:	e594300c 	ldr	r3, [r4, #12]
c044085c:	e2833001 	add	r3, r3, #1
c0440860:	e584300c 	str	r3, [r4, #12]
c0440864:	e3530001 	cmp	r3, #1
c0440868:	daffffb1 	ble	0xc0440734
c044086c:	ebffff71 	bl	0xc0440638
c0440870:	e3a06e7d 	mov	r6, #2000	@ 0x7d0
c0440874:	e3a03000 	mov	r3, #0
c0440878:	e584300c 	str	r3, [r4, #12]
c044087c:	e5843008 	str	r3, [r4, #8]
c0440880:	eaffffab 	b	0xc0440734
c0440884:	e28dd014 	add	sp, sp, #20
c0440888:	e8bd83f0 	pop	{r4, r5, r6, r7, r8, r9, pc}
c044088c:	c0a04e08 	adcgt	r4, r0, r8, lsl #28
c0440890:	c0a5d4d0 	ldrdgt	sp, [r5], r0	@ <UNPREDICTABLE>
c0440894:	c0a5d4e4 	adcgt	sp, r5, r4, ror #9
c0440898:	e59f3018 	ldr	r3, [pc, #24]	@ 0xc04408b8
c044089c:	e5933000 	ldr	r3, [r3]
c04408a0:	e5d330fe 	ldrb	r3, [r3, #254]	@ 0xfe
c04408a4:	e3530000 	cmp	r3, #0
c04408a8:	159f300c 	ldrne	r3, [pc, #12]	@ 0xc04408bc
c04408ac:	13a02001 	movne	r2, #1
c04408b0:	15832000 	strne	r2, [r3]
c04408b4:	e12fff1e 	bx	lr
c04408b8:	c0a5d4d0 	ldrdgt	sp, [r5], r0	@ <UNPREDICTABLE>
c04408bc:	c0a5d4e4 	adcgt	sp, r5, r4, ror #9
c04408c0:	e59f300c 	ldr	r3, [pc, #12]	@ 0xc04408d4
c04408c4:	e3a02001 	mov	r2, #1
c04408c8:	e5933000 	ldr	r3, [r3]
c04408cc:	e5c32090 	strb	r2, [r3, #144]	@ 0x90
c04408d0:	e12fff1e 	bx	lr
c04408d4:	c0a5d4d0 	ldrdgt	sp, [r5], r0	@ <UNPREDICTABLE>
c04408d8:	e59f300c 	ldr	r3, [pc, #12]	@ 0xc04408ec
c04408dc:	e3a02000 	mov	r2, #0
c04408e0:	e5933000 	ldr	r3, [r3]
c04408e4:	e5c32090 	strb	r2, [r3, #144]	@ 0x90
c04408e8:	e12fff1e 	bx	lr
c04408ec:	c0a5d4d0 	ldrdgt	sp, [r5], r0	@ <UNPREDICTABLE>
c04408f0:	e59f300c 	ldr	r3, [pc, #12]	@ 0xc0440904
c04408f4:	e3a02001 	mov	r2, #1
c04408f8:	e5933000 	ldr	r3, [r3]
c04408fc:	e5c320fd 	strb	r2, [r3, #253]	@ 0xfd
c0440900:	e12fff1e 	bx	lr
c0440904:	c0a5d4d0 	ldrdgt	sp, [r5], r0	@ <UNPREDICTABLE>
c0440908:	e92d4010 	push	{r4, lr}
c044090c:	ebffffe1 	bl	0xc0440898
c0440910:	e3a02000 	mov	r2, #0
c0440914:	e59f3008 	ldr	r3, [pc, #8]	@ 0xc0440924
c0440918:	e5933000 	ldr	r3, [r3]
c044091c:	e5c320fd 	strb	r2, [r3, #253]	@ 0xfd
c0440920:	e8bd8010 	pop	{r4, pc}
c0440924:	c0a5d4d0 	ldrdgt	sp, [r5], r0	@ <UNPREDICTABLE>
c0440928:	e92d4010 	push	{r4, lr}
c044092c:	e59f4034 	ldr	r4, [pc, #52]	@ 0xc0440968
c0440930:	e5943000 	ldr	r3, [r4]
c0440934:	e3530000 	cmp	r3, #0
c0440938:	08bd8010 	popeq	{r4, pc}
c044093c:	e5d320fe 	ldrb	r2, [r3, #254]	@ 0xfe
c0440940:	e3520000 	cmp	r2, #0
c0440944:	08bd8010 	popeq	{r4, pc}
c0440948:	e5930104 	ldr	r0, [r3, #260]	@ 0x104
c044094c:	e3500000 	cmp	r0, #0
c0440950:	08bd8010 	popeq	{r4, pc}
c0440954:	ebf3cd25 	bl	0xc0133df0
c0440958:	e5943000 	ldr	r3, [r4]
c044095c:	e3a02000 	mov	r2, #0
c0440960:	e5832104 	str	r2, [r3, #260]	@ 0x104
c0440964:	e8bd8010 	pop	{r4, pc}
c0440968:	c0a5d4d0 	ldrdgt	sp, [r5], r0	@ <UNPREDICTABLE>
c044096c:	e92d4070 	push	{r4, r5, r6, lr}
c0440970:	e59f407c 	ldr	r4, [pc, #124]	@ 0xc04409f4
c0440974:	e5943000 	ldr	r3, [r4]
c0440978:	e3530000 	cmp	r3, #0
c044097c:	08bd8070 	popeq	{r4, r5, r6, pc}
c0440980:	e5d330fe 	ldrb	r3, [r3, #254]	@ 0xfe
c0440984:	e3530000 	cmp	r3, #0
c0440988:	08bd8070 	popeq	{r4, r5, r6, pc}
c044098c:	ebffffc1 	bl	0xc0440898
c0440990:	e59f3060 	ldr	r3, [pc, #96]	@ 0xc04409f8
c0440994:	e5945000 	ldr	r5, [r4]
c0440998:	e3a02000 	mov	r2, #0
c044099c:	e5832008 	str	r2, [r3, #8]
c04409a0:	e583200c 	str	r2, [r3, #12]
c04409a4:	e5953104 	ldr	r3, [r5, #260]	@ 0x104
c04409a8:	e1530002 	cmp	r3, r2
c04409ac:	e5850100 	str	r0, [r5, #256]	@ 0x100
c04409b0:	1a000009 	bne	0xc04409dc
c04409b4:	e59f3040 	ldr	r3, [pc, #64]	@ 0xc04409fc
c04409b8:	e3e02000 	mvn	r2, #0
c04409bc:	e1a01005 	mov	r1, r5
c04409c0:	e5950108 	ldr	r0, [r5, #264]	@ 0x108
c04409c4:	ebf3cd9d 	bl	0xc0134040
c04409c8:	e3700a01 	cmn	r0, #4096	@ 0x1000
c04409cc:	e1a06000 	mov	r6, r0
c04409d0:	8a000000 	bhi	0xc04409d8
c04409d4:	ebf3e6bd 	bl	0xc013a4d0
c04409d8:	e5856104 	str	r6, [r5, #260]	@ 0x104
c04409dc:	e5943000 	ldr	r3, [r4]
c04409e0:	e5932104 	ldr	r2, [r3, #260]	@ 0x104
c04409e4:	e3720a01 	cmn	r2, #4096	@ 0x1000
c04409e8:	83a02000 	movhi	r2, #0
c04409ec:	85832104 	strhi	r2, [r3, #260]	@ 0x104
c04409f0:	e8bd8070 	pop	{r4, r5, r6, pc}
c04409f4:	c0a5d4d0 	ldrdgt	sp, [r5], r0	@ <UNPREDICTABLE>
c04409f8:	c0a5d4e4 	adcgt	sp, r5, r4, ror #9
c04409fc:	c08027e3 	addgt	r2, r0, r3, ror #15
c0440a00:	e52de004 	push	{lr}		@ (str lr, [sp, #-4]!)
c0440a04:	e1a0c001 	mov	ip, r1
c0440a08:	e1a01002 	mov	r1, r2
c0440a0c:	e1a02003 	mov	r2, r3
c0440a10:	e5903010 	ldr	r3, [r0, #16]
c0440a14:	e1a0000c 	mov	r0, ip
c0440a18:	e593e018 	ldr	lr, [r3, #24]
c0440a1c:	e5933014 	ldr	r3, [r3, #20]
c0440a20:	e1a0c00e 	mov	ip, lr
c0440a24:	e49de004 	pop	{lr}		@ (ldr lr, [sp], #4)
c0440a28:	e12fff1c 	bx	ip
c0440a2c:	e3a00000 	mov	r0, #0
c0440a30:	e12fff1e 	bx	lr
c0440a34:	e92d4007 	push	{r0, r1, r2, lr}
c0440a38:	e3a02009 	mov	r2, #9
c0440a3c:	e88d0003 	stm	sp, {r0, r1}
c0440a40:	e3a01086 	mov	r1, #134	@ 0x86
c0440a44:	e59f300c 	ldr	r3, [pc, #12]	@ 0xc0440a58
c0440a48:	e59f000c 	ldr	r0, [pc, #12]	@ 0xc0440a5c
c0440a4c:	ebf3625e 	bl	0xc01193cc
c0440a50:	e28dd00c 	add	sp, sp, #12
c0440a54:	e49df004 	pop	{pc}		@ (ldr pc, [sp], #4)
c0440a58:	c07cce0c 	rsbsgt	ip, ip, ip, lsl #28
c0440a5c:	c07ccde8 	rsbsgt	ip, ip, r8, ror #27
c0440a60:	e92d41f0 	push	{r4, r5, r6, r7, r8, lr}
c0440a64:	e1a0300d 	mov	r3, sp
c0440a68:	e3c3cd7f 	bic	ip, r3, #8128	@ 0x1fc0
c0440a6c:	e1a07000 	mov	r7, r0
c0440a70:	e3ccc03f 	bic	ip, ip, #63	@ 0x3f
c0440a74:	e1a04002 	mov	r4, r2
c0440a78:	e59c3008 	ldr	r3, [ip, #8]
c0440a7c:	e091e002 	adds	lr, r1, r2
c0440a80:	30dee003 	sbcscc	lr, lr, r3
c0440a84:	33a03000 	movcc	r3, #0
c0440a88:	e3530000 	cmp	r3, #0
c0440a8c:	11a05002 	movne	r5, r2
c0440a90:	1a000008 	bne	0xc0440ab8
c0440a94:	ee136f10 	mrc	15, 0, r6, cr3, cr0, {0}
c0440a98:	e3c6300c 	bic	r3, r6, #12
c0440a9c:	e3833004 	orr	r3, r3, #4
c0440aa0:	ee033f10 	mcr	15, 0, r3, cr3, cr0, {0}
c0440aa4:	f57ff06f 	isb	sy
c0440aa8:	eb0816dc 	bl	0xc0646620
c0440aac:	e1a05000 	mov	r5, r0
c0440ab0:	ee036f10 	mcr	15, 0, r6, cr3, cr0, {0}
c0440ab4:	f57ff06f 	isb	sy
c0440ab8:	e3550000 	cmp	r5, #0
c0440abc:	0a000004 	beq	0xc0440ad4
c0440ac0:	e0440005 	sub	r0, r4, r5
c0440ac4:	e1a02005 	mov	r2, r5
c0440ac8:	e3a01000 	mov	r1, #0
c0440acc:	e0870000 	add	r0, r7, r0
c0440ad0:	eb082022 	bl	0xc0648b60
c0440ad4:	e1a00005 	mov	r0, r5
c0440ad8:	e8bd81f0 	pop	{r4, r5, r6, r7, r8, pc}
c0440adc:	e59f3024 	ldr	r3, [pc, #36]	@ 0xc0440b08
c0440ae0:	e1a00002 	mov	r0, r2
c0440ae4:	e59f2020 	ldr	r2, [pc, #32]	@ 0xc0440b0c
c0440ae8:	e5933000 	ldr	r3, [r3]
c0440aec:	e5d3108b 	ldrb	r1, [r3, #139]	@ 0x8b
c0440af0:	e59f3018 	ldr	r3, [pc, #24]	@ 0xc0440b10
c0440af4:	e3510000 	cmp	r1, #0
c0440af8:	e3a010c8 	mov	r1, #200	@ 0xc8
c0440afc:	01a03002 	moveq	r3, r2
c0440b00:	e59f200c 	ldr	r2, [pc, #12]	@ 0xc0440b14
c0440b04:	ea086a81 	b	0xc065b510
c0440b08:	c0a5d4d0 	ldrdgt	sp, [r5], r0	@ <UNPREDICTABLE>
c0440b0c:	c07e17a6 	rsbsgt	r1, lr, r6, lsr #15
c0440b10:	c07e17c1 	rsbsgt	r1, lr, r1, asr #15
c0440b14:	c08027fb 	strdgt	r2, [r0], fp
c0440b18:	e92d43f7 	push	{r0, r1, r2, r4, r5, r6, r7, r8, r9, lr}
c0440b1c:	e1a09002 	mov	r9, r2
c0440b20:	e59f6094 	ldr	r6, [pc, #148]	@ 0xc0440bbc
c0440b24:	e3a05000 	mov	r5, #0
c0440b28:	e59f7090 	ldr	r7, [pc, #144]	@ 0xc0440bc0
c0440b2c:	e3a04001 	mov	r4, #1
c0440b30:	e59f808c 	ldr	r8, [pc, #140]	@ 0xc0440bc4
c0440b34:	e3540007 	cmp	r4, #7
c0440b38:	e0890005 	add	r0, r9, r5
c0440b3c:	1a000012 	bne	0xc0440b8c
c0440b40:	e5962000 	ldr	r2, [r6]
c0440b44:	e3a01064 	mov	r1, #100	@ 0x64
c0440b48:	e5d23199 	ldrb	r3, [r2, #409]	@ 0x199
c0440b4c:	e5d221ad 	ldrb	r2, [r2, #429]	@ 0x1ad
c0440b50:	e3530000 	cmp	r3, #0
c0440b54:	e58d2004 	str	r2, [sp, #4]
c0440b58:	11a03007 	movne	r3, r7
c0440b5c:	01a03008 	moveq	r3, r8
c0440b60:	e59f2060 	ldr	r2, [pc, #96]	@ 0xc0440bc8
c0440b64:	e58d3000 	str	r3, [sp]
c0440b68:	e1a03004 	mov	r3, r4
c0440b6c:	eb086a67 	bl	0xc065b510
c0440b70:	e2844001 	add	r4, r4, #1
c0440b74:	e0855000 	add	r5, r5, r0
c0440b78:	e3540008 	cmp	r4, #8
c0440b7c:	1affffec 	bne	0xc0440b34
c0440b80:	e1a00005 	mov	r0, r5
c0440b84:	e28dd00c 	add	sp, sp, #12
c0440b88:	e8bd83f0 	pop	{r4, r5, r6, r7, r8, r9, pc}
c0440b8c:	e5963000 	ldr	r3, [r6]
c0440b90:	e3a01064 	mov	r1, #100	@ 0x64
c0440b94:	e59f2030 	ldr	r2, [pc, #48]	@ 0xc0440bcc
c0440b98:	e0833004 	add	r3, r3, r4
c0440b9c:	e5d33192 	ldrb	r3, [r3, #402]	@ 0x192
c0440ba0:	e3530000 	cmp	r3, #0
c0440ba4:	11a03007 	movne	r3, r7
c0440ba8:	01a03008 	moveq	r3, r8
c0440bac:	e58d3000 	str	r3, [sp]
c0440bb0:	e1a03004 	mov	r3, r4
c0440bb4:	eb086a55 	bl	0xc065b510
c0440bb8:	eaffffec 	b	0xc0440b70
c0440bbc:	c0a5d4d0 	ldrdgt	sp, [r5], r0	@ <UNPREDICTABLE>
c0440bc0:	c07edaee 	rsbsgt	sp, lr, lr, ror #21
c0440bc4:	c07e2705 	rsbsgt	r2, lr, r5, lsl #14
c0440bc8:	c0802813 	addgt	r2, r0, r3, lsl r8
c0440bcc:	c0802839 	addgt	r2, r0, r9, lsr r8
c0440bd0:	e59f3014 	ldr	r3, [pc, #20]	@ 0xc0440bec
c0440bd4:	e1a00002 	mov	r0, r2
c0440bd8:	e3a010c8 	mov	r1, #200	@ 0xc8
c0440bdc:	e59f200c 	ldr	r2, [pc, #12]	@ 0xc0440bf0
c0440be0:	e5933000 	ldr	r3, [r3]
c0440be4:	e59332ac 	ldr	r3, [r3, #684]	@ 0x2ac
c0440be8:	ea086a48 	b	0xc065b510
c0440bec:	c0a5d4d0 	ldrdgt	sp, [r5], r0	@ <UNPREDICTABLE>
c0440bf0:	c0802852 	addgt	r2, r0, r2, asr r8
c0440bf4:	e59f3038 	ldr	r3, [pc, #56]	@ 0xc0440c34
c0440bf8:	e92d4007 	push	{r0, r1, r2, lr}
c0440bfc:	e1a00002 	mov	r0, r2
c0440c00:	e5932000 	ldr	r2, [r3]
c0440c04:	e59f302c 	ldr	r3, [pc, #44]	@ 0xc0440c38
c0440c08:	e2822098 	add	r2, r2, #152	@ 0x98
c0440c0c:	e5121004 	ldr	r1, [r2, #-4]
c0440c10:	e58d2000 	str	r2, [sp]
c0440c14:	e59f2020 	ldr	r2, [pc, #32]	@ 0xc0440c3c
c0440c18:	e3510000 	cmp	r1, #0
c0440c1c:	e3a01ffa 	mov	r1, #1000	@ 0x3e8
c0440c20:	b1a03002 	movlt	r3, r2
c0440c24:	e59f2014 	ldr	r2, [pc, #20]	@ 0xc0440c40
c0440c28:	eb086a38 	bl	0xc065b510
c0440c2c:	e28dd00c 	add	sp, sp, #12
c0440c30:	e49df004 	pop	{pc}		@ (ldr pc, [sp], #4)
c0440c34:	c0a5d4d0 	ldrdgt	sp, [r5], r0	@ <UNPREDICTABLE>
c0440c38:	c07d45c7 	rsbsgt	r4, sp, r7, asr #11
c0440c3c:	c0802ba0 	addgt	r2, r0, r0, lsr #23
c0440c40:	c08028a5 	addgt	r2, r0, r5, lsr #17
c0440c44:	e59f3024 	ldr	r3, [pc, #36]	@ 0xc0440c70
c0440c48:	e1a00002 	mov	r0, r2
c0440c4c:	e59f2020 	ldr	r2, [pc, #32]	@ 0xc0440c74
c0440c50:	e5933000 	ldr	r3, [r3]
c0440c54:	e5d31090 	ldrb	r1, [r3, #144]	@ 0x90
c0440c58:	e59f3018 	ldr	r3, [pc, #24]	@ 0xc0440c78
c0440c5c:	e3510000 	cmp	r1, #0
c0440c60:	e3a010c8 	mov	r1, #200	@ 0xc8
c0440c64:	01a03002 	moveq	r3, r2
c0440c68:	e59f200c 	ldr	r2, [pc, #12]	@ 0xc0440c7c
c0440c6c:	ea086a27 	b	0xc065b510
c0440c70:	c0a5d4d0 	ldrdgt	sp, [r5], r0	@ <UNPREDICTABLE>
c0440c74:	c07e17a6 	rsbsgt	r1, lr, r6, lsr #15
c0440c78:	c07e17c1 	rsbsgt	r1, lr, r1, asr #15
c0440c7c:	c08028c6 	addgt	r2, r0, r6, asr #17
c0440c80:	e92d4010 	push	{r4, lr}
c0440c84:	e1a00002 	mov	r0, r2
c0440c88:	e59f1008 	ldr	r1, [pc, #8]	@ 0xc0440c98
c0440c8c:	eb0858f7 	bl	0xc0657070
c0440c90:	e3a0001a 	mov	r0, #26
c0440c94:	e8bd8010 	pop	{r4, pc}
c0440c98:	c08028d8 	ldrdgt	r2, [r0], r8
c0440c9c:	e92d41ff 	push	{r0, r1, r2, r3, r4, r5, r6, r7, r8, lr}
c0440ca0:	e1a08003 	mov	r8, r3
c0440ca4:	e59f60f0 	ldr	r6, [pc, #240]	@ 0xc0440d9c
c0440ca8:	e1a07002 	mov	r7, r2
c0440cac:	e1a01007 	mov	r1, r7
c0440cb0:	e3a02003 	mov	r2, #3
c0440cb4:	e28d0009 	add	r0, sp, #9
c0440cb8:	e3a04000 	mov	r4, #0
c0440cbc:	e5963000 	ldr	r3, [r6]
c0440cc0:	e1cd40b9 	strh	r4, [sp, #9]
c0440cc4:	e5cd400b 	strb	r4, [sp, #11]
c0440cc8:	e58d300c 	str	r3, [sp, #12]
c0440ccc:	eb085a4f 	bl	0xc0657610
c0440cd0:	e3a01010 	mov	r1, #16
c0440cd4:	e28d2004 	add	r2, sp, #4
c0440cd8:	e28d0009 	add	r0, sp, #9
c0440cdc:	ebfad652 	bl	0xc02f662c
c0440ce0:	e5d71003 	ldrb	r1, [r7, #3]
c0440ce4:	e59f70b4 	ldr	r7, [pc, #180]	@ 0xc0440da0
c0440ce8:	e59d5004 	ldr	r5, [sp, #4]
c0440cec:	e3550007 	cmp	r5, #7
c0440cf0:	1a00001e 	bne	0xc0440d70
c0440cf4:	e3510030 	cmp	r1, #48	@ 0x30
c0440cf8:	0a000009 	beq	0xc0440d24
c0440cfc:	e3510031 	cmp	r1, #49	@ 0x31
c0440d00:	0a000006 	beq	0xc0440d20
c0440d04:	e3510032 	cmp	r1, #50	@ 0x32
c0440d08:	0a000016 	beq	0xc0440d68
c0440d0c:	e3510033 	cmp	r1, #51	@ 0x33
c0440d10:	11a05004 	movne	r5, r4
c0440d14:	1a000003 	bne	0xc0440d28
c0440d18:	e3a04003 	mov	r4, #3
c0440d1c:	ea000000 	b	0xc0440d24
c0440d20:	e3a04001 	mov	r4, #1
c0440d24:	e3a05001 	mov	r5, #1
c0440d28:	e5970000 	ldr	r0, [r7]
c0440d2c:	e2800070 	add	r0, r0, #112	@ 0x70
c0440d30:	eb08855b 	bl	0xc06622a4
c0440d34:	e1a02004 	mov	r2, r4
c0440d38:	e1a01005 	mov	r1, r5
c0440d3c:	e3a00007 	mov	r0, #7
c0440d40:	ebfff7b6 	bl	0xc043ec20
c0440d44:	e5970000 	ldr	r0, [r7]
c0440d48:	e2800070 	add	r0, r0, #112	@ 0x70
c0440d4c:	eb0883bd 	bl	0xc0661c48
c0440d50:	e1a00008 	mov	r0, r8
c0440d54:	e59d200c 	ldr	r2, [sp, #12]
c0440d58:	e5963000 	ldr	r3, [r6]
c0440d5c:	e1520003 	cmp	r2, r3
c0440d60:	0a00000b 	beq	0xc0440d94
c0440d64:	ebf36110 	bl	0xc01191ac
c0440d68:	e3a04002 	mov	r4, #2
c0440d6c:	eaffffec 	b	0xc0440d24
c0440d70:	e2514030 	subs	r4, r1, #48	@ 0x30
c0440d74:	e5970000 	ldr	r0, [r7]
c0440d78:	13a04001 	movne	r4, #1
c0440d7c:	e2800070 	add	r0, r0, #112	@ 0x70
c0440d80:	eb088547 	bl	0xc06622a4
c0440d84:	e1a01004 	mov	r1, r4
c0440d88:	e1a00005 	mov	r0, r5
c0440d8c:	ebfff7da 	bl	0xc043ecfc
c0440d90:	eaffffeb 	b	0xc0440d44
c0440d94:	e28dd010 	add	sp, sp, #16
c0440d98:	e8bd81f0 	pop	{r4, r5, r6, r7, r8, pc}
c0440d9c:	c0a04e08 	adcgt	r4, r0, r8, lsl #28
c0440da0:	c0a5d4d0 	ldrdgt	sp, [r5], r0	@ <UNPREDICTABLE>
c0440da4:	e59f3028 	ldr	r3, [pc, #40]	@ 0xc0440dd4
c0440da8:	e3a010b0 	mov	r1, #176	@ 0xb0
c0440dac:	e92d4010 	push	{r4, lr}
c0440db0:	e1a04002 	mov	r4, r2
c0440db4:	e5933000 	ldr	r3, [r3]
c0440db8:	e5930008 	ldr	r0, [r3, #8]
c0440dbc:	ebfff021 	bl	0xc043ce48
c0440dc0:	e59f1010 	ldr	r1, [pc, #16]	@ 0xc0440dd8
c0440dc4:	e1a00004 	mov	r0, r4
c0440dc8:	eb0858a8 	bl	0xc0657070
c0440dcc:	e3a00006 	mov	r0, #6
c0440dd0:	e8bd8010 	pop	{r4, pc}
c0440dd4:	c0a5d4d0 	ldrdgt	sp, [r5], r0	@ <UNPREDICTABLE>
c0440dd8:	c08028f3 	strdgt	r2, [r0], r3
c0440ddc:	e92d41f0 	push	{r4, r5, r6, r7, r8, lr}
c0440de0:	e3a01000 	mov	r1, #0
c0440de4:	e59f4054 	ldr	r4, [pc, #84]	@ 0xc0440e40
c0440de8:	e1a06003 	mov	r6, r3
c0440dec:	e3a05001 	mov	r5, #1
c0440df0:	e5940000 	ldr	r0, [r4]
c0440df4:	ebffee73 	bl	0xc043c7c8
c0440df8:	e5940000 	ldr	r0, [r4]
c0440dfc:	e2800070 	add	r0, r0, #112	@ 0x70
c0440e00:	e5c05021 	strb	r5, [r0, #33]	@ 0x21
c0440e04:	eb088526 	bl	0xc06622a4
c0440e08:	e5947000 	ldr	r7, [r4]
c0440e0c:	eb002145 	bl	0xc0449328
c0440e10:	e58702ac 	str	r0, [r7, #684]	@ 0x2ac
c0440e14:	e5940000 	ldr	r0, [r4]
c0440e18:	e2800070 	add	r0, r0, #112	@ 0x70
c0440e1c:	eb088389 	bl	0xc0661c48
c0440e20:	ebfffe04 	bl	0xc0440638
c0440e24:	e5940000 	ldr	r0, [r4]
c0440e28:	e3a03000 	mov	r3, #0
c0440e2c:	e1a01005 	mov	r1, r5
c0440e30:	e5c03091 	strb	r3, [r0, #145]	@ 0x91
c0440e34:	ebffee63 	bl	0xc043c7c8
c0440e38:	e1a00006 	mov	r0, r6
c0440e3c:	e8bd81f0 	pop	{r4, r5, r6, r7, r8, pc}
c0440e40:	c0a5d4d0 	ldrdgt	sp, [r5], r0	@ <UNPREDICTABLE>
c0440e44:	e92d4070 	push	{r4, r5, r6, lr}
c0440e48:	e1a05003 	mov	r5, r3
c0440e4c:	e5d23000 	ldrb	r3, [r2]
c0440e50:	e59f404c 	ldr	r4, [pc, #76]	@ 0xc0440ea4
c0440e54:	e3530031 	cmp	r3, #49	@ 0x31
c0440e58:	05943000 	ldreq	r3, [r4]
c0440e5c:	03a02001 	moveq	r2, #1
c0440e60:	e5940000 	ldr	r0, [r4]
c0440e64:	05c322de 	strbeq	r2, [r3, #734]	@ 0x2de
c0440e68:	e2800070 	add	r0, r0, #112	@ 0x70
c0440e6c:	eb08850c 	bl	0xc06622a4
c0440e70:	e5946000 	ldr	r6, [r4]
c0440e74:	eb0015f5 	bl	0xc0446650
c0440e78:	e5860094 	str	r0, [r6, #148]	@ 0x94
c0440e7c:	e5940000 	ldr	r0, [r4]
c0440e80:	e2800070 	add	r0, r0, #112	@ 0x70
c0440e84:	eb08836f 	bl	0xc0661c48
c0440e88:	e5942000 	ldr	r2, [r4]
c0440e8c:	e3a03000 	mov	r3, #0
c0440e90:	e5920094 	ldr	r0, [r2, #148]	@ 0x94
c0440e94:	e5c232de 	strb	r3, [r2, #734]	@ 0x2de
c0440e98:	e1500003 	cmp	r0, r3
c0440e9c:	a1a00005 	movge	r0, r5
c0440ea0:	e8bd8070 	pop	{r4, r5, r6, pc}
c0440ea4:	c0a5d4d0 	ldrdgt	sp, [r5], r0	@ <UNPREDICTABLE>
c0440ea8:	e92d4010 	push	{r4, lr}
c0440eac:	ebfffe89 	bl	0xc04408d8
c0440eb0:	e3a00000 	mov	r0, #0
c0440eb4:	e8bd8010 	pop	{r4, pc}
c0440eb8:	e92d4070 	push	{r4, r5, r6, lr}
c0440ebc:	e1a05003 	mov	r5, r3
c0440ec0:	e5d23000 	ldrb	r3, [r2]
c0440ec4:	e1a04002 	mov	r4, r2
c0440ec8:	e3530031 	cmp	r3, #49	@ 0x31
c0440ecc:	1a000000 	bne	0xc0440ed4
c0440ed0:	ebfffe80 	bl	0xc04408d8
c0440ed4:	e5d43000 	ldrb	r3, [r4]
c0440ed8:	e3530030 	cmp	r3, #48	@ 0x30
c0440edc:	1a000000 	bne	0xc0440ee4
c0440ee0:	ebfffe76 	bl	0xc04408c0
c0440ee4:	e1a00005 	mov	r0, r5
c0440ee8:	e8bd8070 	pop	{r4, r5, r6, pc}
c0440eec:	e92d4010 	push	{r4, lr}
c0440ef0:	ebfffe72 	bl	0xc04408c0
c0440ef4:	e3a00000 	mov	r0, #0
c0440ef8:	e8bd8010 	pop	{r4, pc}
c0440efc:	e92d4030 	push	{r4, r5, lr}
c0440f00:	e24dd044 	sub	sp, sp, #68	@ 0x44
c0440f04:	e59f40b8 	ldr	r4, [pc, #184]	@ 0xc0440fc4
c0440f08:	e1a05002 	mov	r5, r2
c0440f0c:	e5940000 	ldr	r0, [r4]
c0440f10:	e2800070 	add	r0, r0, #112	@ 0x70
c0440f14:	eb0884e2 	bl	0xc06622a4
c0440f18:	e5940000 	ldr	r0, [r4]
c0440f1c:	ebfff6e3 	bl	0xc043eab0
c0440f20:	e5940000 	ldr	r0, [r4]
c0440f24:	e2800070 	add	r0, r0, #112	@ 0x70
c0440f28:	eb088346 	bl	0xc0661c48
c0440f2c:	e5942000 	ldr	r2, [r4]
c0440f30:	e1a00005 	mov	r0, r5
c0440f34:	e5d21028 	ldrb	r1, [r2, #40]	@ 0x28
c0440f38:	e5d23014 	ldrb	r3, [r2, #20]
c0440f3c:	e58d1038 	str	r1, [sp, #56]	@ 0x38
c0440f40:	e5d2101e 	ldrb	r1, [r2, #30]
c0440f44:	e58d1034 	str	r1, [sp, #52]	@ 0x34
c0440f48:	e5d21025 	ldrb	r1, [r2, #37]	@ 0x25
c0440f4c:	e58d1030 	str	r1, [sp, #48]	@ 0x30
c0440f50:	e5d21024 	ldrb	r1, [r2, #36]	@ 0x24
c0440f54:	e58d102c 	str	r1, [sp, #44]	@ 0x2c
c0440f58:	e1d212b2 	ldrh	r1, [r2, #34]	@ 0x22
c0440f5c:	e58d1028 	str	r1, [sp, #40]	@ 0x28
c0440f60:	e1d212b0 	ldrh	r1, [r2, #32]
c0440f64:	e58d1024 	str	r1, [sp, #36]	@ 0x24
c0440f68:	e5d2101d 	ldrb	r1, [r2, #29]
c0440f6c:	e58d1020 	str	r1, [sp, #32]
c0440f70:	e5d2101c 	ldrb	r1, [r2, #28]
c0440f74:	e58d101c 	str	r1, [sp, #28]
c0440f78:	e5d2101b 	ldrb	r1, [r2, #27]
c0440f7c:	e58d1018 	str	r1, [sp, #24]
c0440f80:	e5d2101a 	ldrb	r1, [r2, #26]
c0440f84:	e58d1014 	str	r1, [sp, #20]
c0440f88:	e5d21019 	ldrb	r1, [r2, #25]
c0440f8c:	e58d1010 	str	r1, [sp, #16]
c0440f90:	e5d21018 	ldrb	r1, [r2, #24]
c0440f94:	e58d100c 	str	r1, [sp, #12]
c0440f98:	e5d21017 	ldrb	r1, [r2, #23]
c0440f9c:	e58d1008 	str	r1, [sp, #8]
c0440fa0:	e5d21016 	ldrb	r1, [r2, #22]
c0440fa4:	e58d1004 	str	r1, [sp, #4]
c0440fa8:	e3a01ffa 	mov	r1, #1000	@ 0x3e8
c0440fac:	e5d22015 	ldrb	r2, [r2, #21]
c0440fb0:	e58d2000 	str	r2, [sp]
c0440fb4:	e59f200c 	ldr	r2, [pc, #12]	@ 0xc0440fc8
c0440fb8:	eb086954 	bl	0xc065b510
c0440fbc:	e28dd044 	add	sp, sp, #68	@ 0x44
c0440fc0:	e8bd8030 	pop	{r4, r5, pc}
c0440fc4:	c0a5d4d0 	ldrdgt	sp, [r5], r0	@ <UNPREDICTABLE>
c0440fc8:	c08028fa 	strdgt	r2, [r0], sl
c0440fcc:	e92d4010 	push	{r4, lr}
c0440fd0:	e1a0300d 	mov	r3, sp
c0440fd4:	e3c3ed7f 	bic	lr, r3, #8128	@ 0x1fc0
c0440fd8:	e3cee03f 	bic	lr, lr, #63	@ 0x3f
c0440fdc:	e59e3008 	ldr	r3, [lr, #8]
c0440fe0:	e0904002 	adds	r4, r0, r2
c0440fe4:	30d44003 	sbcscc	r4, r4, r3
c0440fe8:	33a03000 	movcc	r3, #0
c0440fec:	e3530000 	cmp	r3, #0
c0440ff0:	11a0c002 	movne	ip, r2
c0440ff4:	1a000008 	bne	0xc044101c
c0440ff8:	ee134f10 	mrc	15, 0, r4, cr3, cr0, {0}
c0440ffc:	e3c4300c 	bic	r3, r4, #12
c0441000:	e3833004 	orr	r3, r3, #4
c0441004:	ee033f10 	mcr	15, 0, r3, cr3, cr0, {0}
c0441008:	f57ff06f 	isb	sy
c044100c:	eb08167f 	bl	0xc0646a10
c0441010:	e1a0c000 	mov	ip, r0
c0441014:	ee034f10 	mcr	15, 0, r4, cr3, cr0, {0}
c0441018:	f57ff06f 	isb	sy
c044101c:	e1a0000c 	mov	r0, ip
c0441020:	e8bd8010 	pop	{r4, pc}
c0441024:	e92d4030 	push	{r4, r5, lr}
c0441028:	e1a05000 	mov	r5, r0
c044102c:	e59f40b4 	ldr	r4, [pc, #180]	@ 0xc04410e8
c0441030:	e24dd03c 	sub	sp, sp, #60	@ 0x3c
c0441034:	e5940000 	ldr	r0, [r4]
c0441038:	e2800070 	add	r0, r0, #112	@ 0x70
c044103c:	eb088498 	bl	0xc06622a4
c0441040:	e5940000 	ldr	r0, [r4]
c0441044:	ebfff699 	bl	0xc043eab0
c0441048:	e5940000 	ldr	r0, [r4]
c044104c:	e2800070 	add	r0, r0, #112	@ 0x70
c0441050:	eb0882fc 	bl	0xc0661c48
c0441054:	e5941000 	ldr	r1, [r4]
c0441058:	e5d10028 	ldrb	r0, [r1, #40]	@ 0x28
c044105c:	e5d13015 	ldrb	r3, [r1, #21]
c0441060:	e5d12014 	ldrb	r2, [r1, #20]
c0441064:	e58d0034 	str	r0, [sp, #52]	@ 0x34
c0441068:	e5d1001e 	ldrb	r0, [r1, #30]
c044106c:	e58d0030 	str	r0, [sp, #48]	@ 0x30
c0441070:	e5d10025 	ldrb	r0, [r1, #37]	@ 0x25
c0441074:	e58d002c 	str	r0, [sp, #44]	@ 0x2c
c0441078:	e5d10024 	ldrb	r0, [r1, #36]	@ 0x24
c044107c:	e58d0028 	str	r0, [sp, #40]	@ 0x28
c0441080:	e1d102b2 	ldrh	r0, [r1, #34]	@ 0x22
c0441084:	e58d0024 	str	r0, [sp, #36]	@ 0x24
c0441088:	e1d102b0 	ldrh	r0, [r1, #32]
c044108c:	e58d0020 	str	r0, [sp, #32]
c0441090:	e5d1001d 	ldrb	r0, [r1, #29]
c0441094:	e58d001c 	str	r0, [sp, #28]
c0441098:	e5d1001c 	ldrb	r0, [r1, #28]
c044109c:	e58d0018 	str	r0, [sp, #24]
c04410a0:	e5d1001b 	ldrb	r0, [r1, #27]
c04410a4:	e58d0014 	str	r0, [sp, #20]
c04410a8:	e5d1001a 	ldrb	r0, [r1, #26]
c04410ac:	e58d0010 	str	r0, [sp, #16]
c04410b0:	e5d10019 	ldrb	r0, [r1, #25]
c04410b4:	e58d000c 	str	r0, [sp, #12]
c04410b8:	e5d10018 	ldrb	r0, [r1, #24]
c04410bc:	e58d0008 	str	r0, [sp, #8]
c04410c0:	e5d10017 	ldrb	r0, [r1, #23]
c04410c4:	e58d0004 	str	r0, [sp, #4]
c04410c8:	e1a00005 	mov	r0, r5
c04410cc:	e5d11016 	ldrb	r1, [r1, #22]
c04410d0:	e58d1000 	str	r1, [sp]
c04410d4:	e59f1010 	ldr	r1, [pc, #16]	@ 0xc04410ec
c04410d8:	ebf6bfe5 	bl	0xc01f1074
c04410dc:	e3a00000 	mov	r0, #0
c04410e0:	e28dd03c 	add	sp, sp, #60	@ 0x3c
c04410e4:	e8bd8030 	pop	{r4, r5, pc}
c04410e8:	c0a5d4d0 	ldrdgt	sp, [r5], r0	@ <UNPREDICTABLE>
c04410ec:	c08028fa 	strdgt	r2, [r0], sl
c04410f0:	e92d4030 	push	{r4, r5, lr}
c04410f4:	e1a05000 	mov	r5, r0
c04410f8:	e59f405c 	ldr	r4, [pc, #92]	@ 0xc044115c
c04410fc:	e24dd014 	sub	sp, sp, #20
c0441100:	e5940000 	ldr	r0, [r4]
c0441104:	e2800070 	add	r0, r0, #112	@ 0x70
c0441108:	eb088465 	bl	0xc06622a4
c044110c:	e5940000 	ldr	r0, [r4]
c0441110:	ebfff666 	bl	0xc043eab0
c0441114:	e5940000 	ldr	r0, [r4]
c0441118:	e2800070 	add	r0, r0, #112	@ 0x70
c044111c:	eb0882c9 	bl	0xc0661c48
c0441120:	e5941000 	ldr	r1, [r4]
c0441124:	e5d10019 	ldrb	r0, [r1, #25]
c0441128:	e5d13016 	ldrb	r3, [r1, #22]
c044112c:	e5d12015 	ldrb	r2, [r1, #21]
c0441130:	e58d0008 	str	r0, [sp, #8]
c0441134:	e5d10018 	ldrb	r0, [r1, #24]
c0441138:	e58d0004 	str	r0, [sp, #4]
c044113c:	e1a00005 	mov	r0, r5
c0441140:	e5d11017 	ldrb	r1, [r1, #23]
c0441144:	e58d1000 	str	r1, [sp]
c0441148:	e59f1010 	ldr	r1, [pc, #16]	@ 0xc0441160
c044114c:	ebf6bfc8 	bl	0xc01f1074
c0441150:	e3a00000 	mov	r0, #0
c0441154:	e28dd014 	add	sp, sp, #20
c0441158:	e8bd8030 	pop	{r4, r5, pc}
c044115c:	c0a5d4d0 	ldrdgt	sp, [r5], r0	@ <UNPREDICTABLE>
c0441160:	c08029bc 			@ <UNDEFINED> instruction: 0xc08029bc
c0441164:	e59f3028 	ldr	r3, [pc, #40]	@ 0xc0441194
c0441168:	e92d4010 	push	{r4, lr}
c044116c:	e5933000 	ldr	r3, [r3]
c0441170:	e59f2020 	ldr	r2, [pc, #32]	@ 0xc0441198
c0441174:	e5d31090 	ldrb	r1, [r3, #144]	@ 0x90
c0441178:	e59f301c 	ldr	r3, [pc, #28]	@ 0xc044119c
c044117c:	e3510000 	cmp	r1, #0
c0441180:	e59f1018 	ldr	r1, [pc, #24]	@ 0xc04411a0
c0441184:	01a02003 	moveq	r2, r3
c0441188:	ebf6bfb9 	bl	0xc01f1074
c044118c:	e3a00000 	mov	r0, #0
c0441190:	e8bd8010 	pop	{r4, pc}
c0441194:	c0a5d4d0 	ldrdgt	sp, [r5], r0	@ <UNPREDICTABLE>
c0441198:	c07e17c1 	rsbsgt	r1, lr, r1, asr #15
c044119c:	c07e17a6 	rsbsgt	r1, lr, r6, lsr #15
c04411a0:	c08028c6 	addgt	r2, r0, r6, asr #17
c04411a4:	e59f302c 	ldr	r3, [pc, #44]	@ 0xc04411d8
c04411a8:	e92d4010 	push	{r4, lr}
c04411ac:	e5933000 	ldr	r3, [r3]
c04411b0:	e59f1024 	ldr	r1, [pc, #36]	@ 0xc04411dc
c04411b4:	e59f2024 	ldr	r2, [pc, #36]	@ 0xc04411e0
c04411b8:	e2833098 	add	r3, r3, #152	@ 0x98
c04411bc:	e513c004 	ldr	ip, [r3, #-4]
c04411c0:	e35c0000 	cmp	ip, #0
c04411c4:	b1a02001 	movlt	r2, r1
c04411c8:	e59f1014 	ldr	r1, [pc, #20]	@ 0xc04411e4
c04411cc:	ebf6bfa8 	bl	0xc01f1074
c04411d0:	e3a00000 	mov	r0, #0
c04411d4:	e8bd8010 	pop	{r4, pc}
c04411d8:	c0a5d4d0 	ldrdgt	sp, [r5], r0	@ <UNPREDICTABLE>
c04411dc:	c0802ba0 	addgt	r2, r0, r0, lsr #23
c04411e0:	c07d45c7 	rsbsgt	r4, sp, r7, asr #11
c04411e4:	c08028a5 	addgt	r2, r0, r5, lsr #17
c04411e8:	e92d41f0 	push	{r4, r5, r6, r7, r8, lr}
c04411ec:	e3a01000 	mov	r1, #0
c04411f0:	e59f4068 	ldr	r4, [pc, #104]	@ 0xc0441260
c04411f4:	e1a07000 	mov	r7, r0
c04411f8:	e3a06001 	mov	r6, #1
c04411fc:	e5940000 	ldr	r0, [r4]
c0441200:	ebffed70 	bl	0xc043c7c8
c0441204:	e5940000 	ldr	r0, [r4]
c0441208:	e2800070 	add	r0, r0, #112	@ 0x70
c044120c:	e5c06021 	strb	r6, [r0, #33]	@ 0x21
c0441210:	eb088423 	bl	0xc06622a4
c0441214:	e5945000 	ldr	r5, [r4]
c0441218:	eb002042 	bl	0xc0449328
c044121c:	e58502ac 	str	r0, [r5, #684]	@ 0x2ac
c0441220:	e3a05000 	mov	r5, #0
c0441224:	e5940000 	ldr	r0, [r4]
c0441228:	e2800070 	add	r0, r0, #112	@ 0x70
c044122c:	eb088285 	bl	0xc0661c48
c0441230:	ebfffd00 	bl	0xc0440638
c0441234:	e5940000 	ldr	r0, [r4]
c0441238:	e1a01006 	mov	r1, r6
c044123c:	e5c05091 	strb	r5, [r0, #145]	@ 0x91
c0441240:	ebffed60 	bl	0xc043c7c8
c0441244:	e5943000 	ldr	r3, [r4]
c0441248:	e1a00007 	mov	r0, r7
c044124c:	e59f1010 	ldr	r1, [pc, #16]	@ 0xc0441264
c0441250:	e59322ac 	ldr	r2, [r3, #684]	@ 0x2ac
c0441254:	ebf6bf86 	bl	0xc01f1074
c0441258:	e1a00005 	mov	r0, r5
c044125c:	e8bd81f0 	pop	{r4, r5, r6, r7, r8, pc}
c0441260:	c0a5d4d0 	ldrdgt	sp, [r5], r0	@ <UNPREDICTABLE>
c0441264:	c0802852 	addgt	r2, r0, r2, asr r8
c0441268:	e59f3028 	ldr	r3, [pc, #40]	@ 0xc0441298
c044126c:	e3a010b0 	mov	r1, #176	@ 0xb0
c0441270:	e92d4010 	push	{r4, lr}
c0441274:	e1a04000 	mov	r4, r0
c0441278:	e5933000 	ldr	r3, [r3]
c044127c:	e5930008 	ldr	r0, [r3, #8]
c0441280:	ebffeef0 	bl	0xc043ce48
c0441284:	e1a00004 	mov	r0, r4
c0441288:	e59f100c 	ldr	r1, [pc, #12]	@ 0xc044129c
c044128c:	ebf6bf78 	bl	0xc01f1074
c0441290:	e3a00000 	mov	r0, #0
c0441294:	e8bd8010 	pop	{r4, pc}
c0441298:	c0a5d4d0 	ldrdgt	sp, [r5], r0	@ <UNPREDICTABLE>
c044129c:	c08029d4 	ldrdgt	r2, [r0], r4
c04412a0:	e59f3028 	ldr	r3, [pc, #40]	@ 0xc04412d0
c04412a4:	e92d4010 	push	{r4, lr}
c04412a8:	e5933000 	ldr	r3, [r3]
c04412ac:	e59f2020 	ldr	r2, [pc, #32]	@ 0xc04412d4
c04412b0:	e5d3108b 	ldrb	r1, [r3, #139]	@ 0x8b
c04412b4:	e59f301c 	ldr	r3, [pc, #28]	@ 0xc04412d8
c04412b8:	e3510000 	cmp	r1, #0
c04412bc:	e59f1018 	ldr	r1, [pc, #24]	@ 0xc04412dc
c04412c0:	01a02003 	moveq	r2, r3
c04412c4:	ebf6bf6a 	bl	0xc01f1074
c04412c8:	e3a00000 	mov	r0, #0
c04412cc:	e8bd8010 	pop	{r4, pc}
c04412d0:	c0a5d4d0 	ldrdgt	sp, [r5], r0	@ <UNPREDICTABLE>
c04412d4:	c07e17c1 	rsbsgt	r1, lr, r1, asr #15
c04412d8:	c07e17a6 	rsbsgt	r1, lr, r6, lsr #15
c04412dc:	c08027fb 	strdgt	r2, [r0], fp
c04412e0:	e59f3028 	ldr	r3, [pc, #40]	@ 0xc0441310
c04412e4:	e92d4010 	push	{r4, lr}
c04412e8:	e5933000 	ldr	r3, [r3]
c04412ec:	e59f2020 	ldr	r2, [pc, #32]	@ 0xc0441314
c04412f0:	e5d312e0 	ldrb	r1, [r3, #736]	@ 0x2e0
c04412f4:	e59f301c 	ldr	r3, [pc, #28]	@ 0xc0441318
c04412f8:	e3510000 	cmp	r1, #0
c04412fc:	e59f1018 	ldr	r1, [pc, #24]	@ 0xc044131c
c0441300:	01a02003 	moveq	r2, r3
c0441304:	ebf6bf5a 	bl	0xc01f1074
c0441308:	e3a00000 	mov	r0, #0
c044130c:	e8bd8010 	pop	{r4, pc}
c0441310:	c0a5d4d0 	ldrdgt	sp, [r5], r0	@ <UNPREDICTABLE>
c0441314:	c07e17c1 	rsbsgt	r1, lr, r1, asr #15
c0441318:	c07e17a6 	rsbsgt	r1, lr, r6, lsr #15
c044131c:	c08029dc 	ldrdgt	r2, [r0], ip
c0441320:	e59f3054 	ldr	r3, [pc, #84]	@ 0xc044137c
c0441324:	e5932000 	ldr	r2, [r3]
c0441328:	e3520000 	cmp	r2, #0
c044132c:	0a000010 	beq	0xc0441374
c0441330:	e92d41f0 	push	{r4, r5, r6, r7, r8, lr}
c0441334:	e1a05003 	mov	r5, r3
c0441338:	e59f7040 	ldr	r7, [pc, #64]	@ 0xc0441380
c044133c:	e1a06000 	mov	r6, r0
c0441340:	e3a04000 	mov	r4, #0
c0441344:	e5953000 	ldr	r3, [r5]
c0441348:	e1a02004 	mov	r2, r4
c044134c:	e1a01007 	mov	r1, r7
c0441350:	e1a00006 	mov	r0, r6
c0441354:	e0833004 	add	r3, r3, r4
c0441358:	e2844001 	add	r4, r4, #1
c044135c:	e5d331ba 	ldrb	r3, [r3, #442]	@ 0x1ba
c0441360:	ebf6bf43 	bl	0xc01f1074
c0441364:	e3540004 	cmp	r4, #4
c0441368:	1afffff5 	bne	0xc0441344
c044136c:	e3a00000 	mov	r0, #0
c0441370:	e8bd81f0 	pop	{r4, r5, r6, r7, r8, pc}
c0441374:	e3a00000 	mov	r0, #0
c0441378:	e12fff1e 	bx	lr
c044137c:	c0a5d4d0 	ldrdgt	sp, [r5], r0	@ <UNPREDICTABLE>
c0441380:	c08029f0 	strdgt	r2, [r0], r0
c0441384:	eaffffe5 	b	0xc0441320
c0441388:	e92d41f3 	push	{r0, r1, r4, r5, r6, r7, r8, lr}
c044138c:	e1a05000 	mov	r5, r0
c0441390:	e59f6080 	ldr	r6, [pc, #128]	@ 0xc0441418
c0441394:	e3a04001 	mov	r4, #1
c0441398:	e59f707c 	ldr	r7, [pc, #124]	@ 0xc044141c
c044139c:	e59f807c 	ldr	r8, [pc, #124]	@ 0xc0441420
c04413a0:	e3540007 	cmp	r4, #7
c04413a4:	1a000010 	bne	0xc04413ec
c04413a8:	e5962000 	ldr	r2, [r6]
c04413ac:	e1a00005 	mov	r0, r5
c04413b0:	e59f106c 	ldr	r1, [pc, #108]	@ 0xc0441424
c04413b4:	e5d23199 	ldrb	r3, [r2, #409]	@ 0x199
c04413b8:	e5d221ad 	ldrb	r2, [r2, #429]	@ 0x1ad
c04413bc:	e3530000 	cmp	r3, #0
c04413c0:	e58d2000 	str	r2, [sp]
c04413c4:	11a03007 	movne	r3, r7
c04413c8:	01a03008 	moveq	r3, r8
c04413cc:	e1a02004 	mov	r2, r4
c04413d0:	ebf6bf27 	bl	0xc01f1074
c04413d4:	e2844001 	add	r4, r4, #1
c04413d8:	e3540008 	cmp	r4, #8
c04413dc:	1affffef 	bne	0xc04413a0
c04413e0:	e3a00000 	mov	r0, #0
c04413e4:	e28dd008 	add	sp, sp, #8
c04413e8:	e8bd81f0 	pop	{r4, r5, r6, r7, r8, pc}
c04413ec:	e5963000 	ldr	r3, [r6]
c04413f0:	e1a02004 	mov	r2, r4
c04413f4:	e59f102c 	ldr	r1, [pc, #44]	@ 0xc0441428
c04413f8:	e1a00005 	mov	r0, r5
c04413fc:	e0833004 	add	r3, r3, r4
c0441400:	e5d33192 	ldrb	r3, [r3, #402]	@ 0x192
c0441404:	e3530000 	cmp	r3, #0
c0441408:	11a03007 	movne	r3, r7
c044140c:	01a03008 	moveq	r3, r8
c0441410:	ebf6bf17 	bl	0xc01f1074
c0441414:	eaffffee 	b	0xc04413d4
c0441418:	c0a5d4d0 	ldrdgt	sp, [r5], r0	@ <UNPREDICTABLE>
c044141c:	c07edaee 	rsbsgt	sp, lr, lr, ror #21
c0441420:	c07e2705 	rsbsgt	r2, lr, r5, lsl #14
c0441424:	c0802813 	addgt	r2, r0, r3, lsl r8
c0441428:	c0802839 	addgt	r2, r0, r9, lsr r8
c044142c:	e1a00001 	mov	r0, r1
c0441430:	e3a02000 	mov	r2, #0
c0441434:	e59f1000 	ldr	r1, [pc]	@ 0xc044143c
c0441438:	eaf6bf43 	b	0xc01f114c
c044143c:	c0441024 	subgt	r1, r4, r4, lsr #32
c0441440:	e1a00001 	mov	r0, r1
c0441444:	e3a02000 	mov	r2, #0
c0441448:	e59f1000 	ldr	r1, [pc]	@ 0xc0441450
c044144c:	eaf6bf3e 	b	0xc01f114c
c0441450:	c04410f0 	strdgt	r1, [r4], #-0
c0441454:	e1a00001 	mov	r0, r1
c0441458:	e3a02000 	mov	r2, #0
c044145c:	e59f1000 	ldr	r1, [pc]	@ 0xc0441464
c0441460:	eaf6bf39 	b	0xc01f114c
c0441464:	c0441164 	subgt	r1, r4, r4, ror #2
c0441468:	e1a00001 	mov	r0, r1
c044146c:	e3a02000 	mov	r2, #0
c0441470:	e59f1000 	ldr	r1, [pc]	@ 0xc0441478
c0441474:	eaf6bf34 	b	0xc01f114c
c0441478:	c0440a2c 	subgt	r0, r4, ip, lsr #20
c044147c:	e1a00001 	mov	r0, r1
c0441480:	e3a02000 	mov	r2, #0
c0441484:	e59f1000 	ldr	r1, [pc]	@ 0xc044148c
c0441488:	eaf6bf2f 	b	0xc01f114c
c044148c:	c04411a4 	subgt	r1, r4, r4, lsr #3
c0441490:	e1a00001 	mov	r0, r1
c0441494:	e3a02000 	mov	r2, #0
c0441498:	e59f1000 	ldr	r1, [pc]	@ 0xc04414a0
c044149c:	eaf6bf2a 	b	0xc01f114c
c04414a0:	c04411e8 	subgt	r1, r4, r8, ror #3
c04414a4:	e1a00001 	mov	r0, r1
c04414a8:	e3a02000 	mov	r2, #0
c04414ac:	e59f1000 	ldr	r1, [pc]	@ 0xc04414b4
c04414b0:	eaf6bf25 	b	0xc01f114c
c04414b4:	c0441b64 	subgt	r1, r4, r4, ror #22
c04414b8:	e1a00001 	mov	r0, r1
c04414bc:	e3a02000 	mov	r2, #0
c04414c0:	e59f1000 	ldr	r1, [pc]	@ 0xc04414c8
c04414c4:	eaf6bf20 	b	0xc01f114c
c04414c8:	c0441b04 	subgt	r1, r4, r4, lsl #22
c04414cc:	e1a00001 	mov	r0, r1
c04414d0:	e3a02000 	mov	r2, #0
c04414d4:	e59f1000 	ldr	r1, [pc]	@ 0xc04414dc
c04414d8:	eaf6bf1b 	b	0xc01f114c
c04414dc:	c0441bd4 	ldrdgt	r1, [r4], #-180	@ 0xffffff4c
c04414e0:	e1a00001 	mov	r0, r1
c04414e4:	e3a02000 	mov	r2, #0
c04414e8:	e59f1000 	ldr	r1, [pc]	@ 0xc04414f0
c04414ec:	eaf6bf16 	b	0xc01f114c
c04414f0:	c0441268 	subgt	r1, r4, r8, ror #4
c04414f4:	e1a00001 	mov	r0, r1
c04414f8:	e3a02000 	mov	r2, #0
c04414fc:	e59f1000 	ldr	r1, [pc]	@ 0xc0441504
c0441500:	eaf6bf11 	b	0xc01f114c
c0441504:	c04412a0 	subgt	r1, r4, r0, lsr #5
c0441508:	e1a00001 	mov	r0, r1
c044150c:	e3a02000 	mov	r2, #0
c0441510:	e59f1000 	ldr	r1, [pc]	@ 0xc0441518
c0441514:	eaf6bf0c 	b	0xc01f114c
c0441518:	c044165c 	subgt	r1, r4, ip, asr r6
c044151c:	e1a00001 	mov	r0, r1
c0441520:	e3a02000 	mov	r2, #0
c0441524:	e59f1000 	ldr	r1, [pc]	@ 0xc044152c
c0441528:	eaf6bf07 	b	0xc01f114c
c044152c:	c04412e0 	subgt	r1, r4, r0, ror #5
c0441530:	e1a00001 	mov	r0, r1
c0441534:	e3a02000 	mov	r2, #0
c0441538:	e59f1000 	ldr	r1, [pc]	@ 0xc0441540
c044153c:	eaf6bf02 	b	0xc01f114c
c0441540:	c0441384 	subgt	r1, r4, r4, lsl #7
c0441544:	e1a00001 	mov	r0, r1
c0441548:	e3a02000 	mov	r2, #0
c044154c:	e59f1000 	ldr	r1, [pc]	@ 0xc0441554
c0441550:	eaf6befd 	b	0xc01f114c
c0441554:	c0441320 	subgt	r1, r4, r0, lsr #6
c0441558:	e1a00001 	mov	r0, r1
c044155c:	e3a02000 	mov	r2, #0
c0441560:	e59f1000 	ldr	r1, [pc]	@ 0xc0441568
c0441564:	eaf6bef8 	b	0xc01f114c
c0441568:	c0441388 	subgt	r1, r4, r8, lsl #7
c044156c:	e92d41f0 	push	{r4, r5, r6, r7, r8, lr}
c0441570:	e3a01000 	mov	r1, #0
c0441574:	e59f005c 	ldr	r0, [pc, #92]	@ 0xc04415d8
c0441578:	e3a06000 	mov	r6, #0
c044157c:	ebf7a026 	bl	0xc022961c
c0441580:	e59f4054 	ldr	r4, [pc, #84]	@ 0xc04415dc
c0441584:	e59f3054 	ldr	r3, [pc, #84]	@ 0xc04415e0
c0441588:	e3a08001 	mov	r8, #1
c044158c:	e2847fe6 	add	r7, r4, #920	@ 0x398
c0441590:	e1a05003 	mov	r5, r3
c0441594:	e5830000 	str	r0, [r3]
c0441598:	e1540007 	cmp	r4, r7
c044159c:	1a000001 	bne	0xc04415a8
c04415a0:	e1a00006 	mov	r0, r6
c04415a4:	e8bd81f0 	pop	{r4, r5, r6, r7, r8, pc}
c04415a8:	e5943008 	ldr	r3, [r4, #8]
c04415ac:	e30011b6 	movw	r1, #438	@ 0x1b6
c04415b0:	e5940000 	ldr	r0, [r4]
c04415b4:	e2844028 	add	r4, r4, #40	@ 0x28
c04415b8:	e5952000 	ldr	r2, [r5]
c04415bc:	ebf7a074 	bl	0xc0229794
c04415c0:	e3500000 	cmp	r0, #0
c04415c4:	e5040024 	str	r0, [r4, #-36]	@ 0xffffffdc
c04415c8:	0544001c 	strbeq	r0, [r4, #-28]	@ 0xffffffe4
c04415cc:	1544801c 	strbne	r8, [r4, #-28]	@ 0xffffffe4
c04415d0:	03e06012 	mvneq	r6, #18
c04415d4:	eaffffef 	b	0xc0441598
c04415d8:	c0802a09 	addgt	r2, r0, r9, lsl #20
c04415dc:	c0a2d800 	adcgt	sp, r2, r0, lsl #16
c04415e0:	c0a5d4f8 	strdgt	sp, [r5], r8	@ <UNPREDICTABLE>
c04415e4:	e92d4070 	push	{r4, r5, r6, lr}
c04415e8:	e3a04000 	mov	r4, #0
c04415ec:	e59f5048 	ldr	r5, [pc, #72]	@ 0xc044163c
c04415f0:	e59f6048 	ldr	r6, [pc, #72]	@ 0xc0441640
c04415f4:	e0853004 	add	r3, r5, r4
c04415f8:	e5933004 	ldr	r3, [r3, #4]
c04415fc:	e3530000 	cmp	r3, #0
c0441600:	0a000002 	beq	0xc0441610
c0441604:	e5961000 	ldr	r1, [r6]
c0441608:	e7940005 	ldr	r0, [r4, r5]
c044160c:	ebf7a118 	bl	0xc0229a74
c0441610:	e2844028 	add	r4, r4, #40	@ 0x28
c0441614:	e3540fe6 	cmp	r4, #920	@ 0x398
c0441618:	1afffff5 	bne	0xc04415f4
c044161c:	e59f301c 	ldr	r3, [pc, #28]	@ 0xc0441640
c0441620:	e5933000 	ldr	r3, [r3]
c0441624:	e3530000 	cmp	r3, #0
c0441628:	08bd8070 	popeq	{r4, r5, r6, pc}
c044162c:	e3a01000 	mov	r1, #0
c0441630:	e59f000c 	ldr	r0, [pc, #12]	@ 0xc0441644
c0441634:	e8bd4070 	pop	{r4, r5, r6, lr}
c0441638:	eaf7a10d 	b	0xc0229a74
c044163c:	c0a2d800 	adcgt	sp, r2, r0, lsl #16
c0441640:	c0a5d4f8 	strdgt	sp, [r5], r8	@ <UNPREDICTABLE>
c0441644:	c0802a09 	addgt	r2, r0, r9, lsl #20
c0441648:	e2400001 	sub	r0, r0, #1
c044164c:	e1b00620 	lsrs	r0, r0, #12
c0441650:	116f0f10 	clzne	r0, r0
c0441654:	12600020 	rsbne	r0, r0, #32
c0441658:	e12fff1e 	bx	lr
c044165c:	e92d47f0 	push	{r4, r5, r6, r7, r8, r9, sl, lr}
c0441660:	e1a08000 	mov	r8, r0
c0441664:	e59f40d8 	ldr	r4, [pc, #216]	@ 0xc0441744
c0441668:	e3a01d33 	mov	r1, #3264	@ 0xcc0
c044166c:	e5943000 	ldr	r3, [r4]
c0441670:	e5d30024 	ldrb	r0, [r3, #36]	@ 0x24
c0441674:	e5d33025 	ldrb	r3, [r3, #37]	@ 0x25
c0441678:	e1600380 	smulbb	r0, r0, r3
c044167c:	e1a00100 	lsl	r0, r0, #2
c0441680:	ebf6206d 	bl	0xc01c983c
c0441684:	e1a06000 	mov	r6, r0
c0441688:	e5940000 	ldr	r0, [r4]
c044168c:	e2800070 	add	r0, r0, #112	@ 0x70
c0441690:	eb088303 	bl	0xc06622a4
c0441694:	e1a01006 	mov	r1, r6
c0441698:	e5940000 	ldr	r0, [r4]
c044169c:	ebfffa31 	bl	0xc043ff68
c04416a0:	e1a05000 	mov	r5, r0
c04416a4:	e5940000 	ldr	r0, [r4]
c04416a8:	e2800070 	add	r0, r0, #112	@ 0x70
c04416ac:	eb088165 	bl	0xc0661c48
c04416b0:	e3550000 	cmp	r5, #0
c04416b4:	ba00000c 	blt	0xc04416ec
c04416b8:	e3550001 	cmp	r5, #1
c04416bc:	e1a00008 	mov	r0, r8
c04416c0:	e59f9080 	ldr	r9, [pc, #128]	@ 0xc0441748
c04416c4:	e3a07000 	mov	r7, #0
c04416c8:	159f107c 	ldrne	r1, [pc, #124]	@ 0xc044174c
c04416cc:	059f107c 	ldreq	r1, [pc, #124]	@ 0xc0441750
c04416d0:	ebf6be67 	bl	0xc01f1074
c04416d4:	e59fa078 	ldr	sl, [pc, #120]	@ 0xc0441754
c04416d8:	e5943000 	ldr	r3, [r4]
c04416dc:	e3a05000 	mov	r5, #0
c04416e0:	e5d33025 	ldrb	r3, [r3, #37]	@ 0x25
c04416e4:	e1570003 	cmp	r7, r3
c04416e8:	ba00000c 	blt	0xc0441720
c04416ec:	e3560000 	cmp	r6, #0
c04416f0:	0a000001 	beq	0xc04416fc
c04416f4:	e1a00006 	mov	r0, r6
c04416f8:	ebf61d56 	bl	0xc01c8c58
c04416fc:	e1a00005 	mov	r0, r5
c0441700:	e8bd87f0 	pop	{r4, r5, r6, r7, r8, r9, sl, pc}
c0441704:	e5d33025 	ldrb	r3, [r3, #37]	@ 0x25
c0441708:	e1a01009 	mov	r1, r9
c044170c:	e1a00008 	mov	r0, r8
c0441710:	e0237395 	mla	r3, r5, r3, r7
c0441714:	e2855001 	add	r5, r5, #1
c0441718:	e7962103 	ldr	r2, [r6, r3, lsl #2]
c044171c:	ebf6be54 	bl	0xc01f1074
c0441720:	e5943000 	ldr	r3, [r4]
c0441724:	e5d32024 	ldrb	r2, [r3, #36]	@ 0x24
c0441728:	e1550002 	cmp	r5, r2
c044172c:	bafffff4 	blt	0xc0441704
c0441730:	e1a0100a 	mov	r1, sl
c0441734:	e1a00008 	mov	r0, r8
c0441738:	ebf6be4d 	bl	0xc01f1074
c044173c:	e2877001 	add	r7, r7, #1
c0441740:	eaffffe4 	b	0xc04416d8
c0441744:	c0a5d4d0 	ldrdgt	sp, [r5], r0	@ <UNPREDICTABLE>
c0441748:	c0802a28 	addgt	r2, r0, r8, lsr #20
c044174c:	c0802a1e 	addgt	r2, r0, lr, lsl sl
c0441750:	c0802a12 	addgt	r2, r0, r2, lsl sl
c0441754:	c08106b1 			@ <UNDEFINED> instruction: 0xc08106b1
c0441758:	e92d4070 	push	{r4, r5, r6, lr}
c044175c:	e3a01d33 	mov	r1, #3264	@ 0xcc0
c0441760:	e59f405c 	ldr	r4, [pc, #92]	@ 0xc04417c4
c0441764:	e5943000 	ldr	r3, [r4]
c0441768:	e5d30024 	ldrb	r0, [r3, #36]	@ 0x24
c044176c:	e5d33025 	ldrb	r3, [r3, #37]	@ 0x25
c0441770:	e1600380 	smulbb	r0, r0, r3
c0441774:	e1a00100 	lsl	r0, r0, #2
c0441778:	ebf6202f 	bl	0xc01c983c
c044177c:	e1a06000 	mov	r6, r0
c0441780:	e5940000 	ldr	r0, [r4]
c0441784:	e2800070 	add	r0, r0, #112	@ 0x70
c0441788:	eb0882c5 	bl	0xc06622a4
c044178c:	e1a01006 	mov	r1, r6
c0441790:	e5940000 	ldr	r0, [r4]
c0441794:	ebfff9f3 	bl	0xc043ff68
c0441798:	e1a05000 	mov	r5, r0
c044179c:	e5940000 	ldr	r0, [r4]
c04417a0:	e0055fc5 	and	r5, r5, r5, asr #31
c04417a4:	e2800070 	add	r0, r0, #112	@ 0x70
c04417a8:	eb088126 	bl	0xc0661c48
c04417ac:	e3560000 	cmp	r6, #0
c04417b0:	0a000001 	beq	0xc04417bc
c04417b4:	e1a00006 	mov	r0, r6
c04417b8:	ebf61d26 	bl	0xc01c8c58
c04417bc:	e1a00005 	mov	r0, r5
c04417c0:	e8bd8070 	pop	{r4, r5, r6, pc}
c04417c4:	c0a5d4d0 	ldrdgt	sp, [r5], r0	@ <UNPREDICTABLE>
c04417c8:	e92d47f0 	push	{r4, r5, r6, r7, r8, r9, sl, lr}
c04417cc:	e1a06000 	mov	r6, r0
c04417d0:	e59f108c 	ldr	r1, [pc, #140]	@ 0xc0441864
c04417d4:	eb085625 	bl	0xc0657070
c04417d8:	e59f2088 	ldr	r2, [pc, #136]	@ 0xc0441868
c04417dc:	e5923000 	ldr	r3, [r2]
c04417e0:	e5933188 	ldr	r3, [r3, #392]	@ 0x188
c04417e4:	e0833083 	add	r3, r3, r3, lsl #1
c04417e8:	e2833006 	add	r3, r3, #6
c04417ec:	e3530a01 	cmp	r3, #4096	@ 0x1000
c04417f0:	2a00000d 	bcs	0xc044182c
c04417f4:	e59f8070 	ldr	r8, [pc, #112]	@ 0xc044186c
c04417f8:	e1a07002 	mov	r7, r2
c04417fc:	e59f906c 	ldr	r9, [pc, #108]	@ 0xc0441870
c0441800:	e3a05000 	mov	r5, #0
c0441804:	e3a04006 	mov	r4, #6
c0441808:	e5973000 	ldr	r3, [r7]
c044180c:	e0860004 	add	r0, r6, r4
c0441810:	e5933188 	ldr	r3, [r3, #392]	@ 0x188
c0441814:	e1550003 	cmp	r5, r3
c0441818:	3a000009 	bcc	0xc0441844
c044181c:	e59f1050 	ldr	r1, [pc, #80]	@ 0xc0441874
c0441820:	eb085612 	bl	0xc0657070
c0441824:	e2840001 	add	r0, r4, #1
c0441828:	e8bd87f0 	pop	{r4, r5, r6, r7, r8, r9, sl, pc}
c044182c:	e1a00006 	mov	r0, r6
c0441830:	e3a03a01 	mov	r3, #4096	@ 0x1000
c0441834:	e59f203c 	ldr	r2, [pc, #60]	@ 0xc0441878
c0441838:	e3a010c8 	mov	r1, #200	@ 0xc8
c044183c:	e8bd47f0 	pop	{r4, r5, r6, r7, r8, r9, sl, lr}
c0441840:	ea086732 	b	0xc065b510
c0441844:	e5983000 	ldr	r3, [r8]
c0441848:	e1a02009 	mov	r2, r9
c044184c:	e3a0100a 	mov	r1, #10
c0441850:	e7d33005 	ldrb	r3, [r3, r5]
c0441854:	e2855001 	add	r5, r5, #1
c0441858:	eb08672c 	bl	0xc065b510
c044185c:	e0844000 	add	r4, r4, r0
c0441860:	eaffffe8 	b	0xc0441808
c0441864:	c0802a2d 	addgt	r2, r0, sp, lsr #20
c0441868:	c0a5d4d0 	ldrdgt	sp, [r5], r0	@ <UNPREDICTABLE>
c044186c:	c0a5d4c8 	adcgt	sp, r5, r8, asr #9
c0441870:	c07ff290 			@ <UNDEFINED> instruction: 0xc07ff290
c0441874:	c08106b1 			@ <UNDEFINED> instruction: 0xc08106b1
c0441878:	c0802a34 	addgt	r2, r0, r4, lsr sl
c044187c:	e59f3064 	ldr	r3, [pc, #100]	@ 0xc04418e8
c0441880:	e92d4007 	push	{r0, r1, r2, lr}
c0441884:	e1a00002 	mov	r0, r2
c0441888:	e5933000 	ldr	r3, [r3]
c044188c:	e593210c 	ldr	r2, [r3, #268]	@ 0x10c
c0441890:	e3520000 	cmp	r2, #0
c0441894:	1a000005 	bne	0xc04418b0
c0441898:	e2833e11 	add	r3, r3, #272	@ 0x110
c044189c:	e59f2048 	ldr	r2, [pc, #72]	@ 0xc04418ec
c04418a0:	e3a01064 	mov	r1, #100	@ 0x64
c04418a4:	e28dd00c 	add	sp, sp, #12
c04418a8:	e49de004 	pop	{lr}		@ (ldr lr, [sp], #4)
c04418ac:	ea086717 	b	0xc065b510
c04418b0:	e5932174 	ldr	r2, [r3, #372]	@ 0x174
c04418b4:	e3520000 	cmp	r2, #0
c04418b8:	1a000007 	bne	0xc04418dc
c04418bc:	e5932188 	ldr	r2, [r3, #392]	@ 0x188
c04418c0:	e3a010c8 	mov	r1, #200	@ 0xc8
c04418c4:	e58d2000 	str	r2, [sp]
c04418c8:	e59f2020 	ldr	r2, [pc, #32]	@ 0xc04418f0
c04418cc:	e593318c 	ldr	r3, [r3, #396]	@ 0x18c
c04418d0:	eb08670e 	bl	0xc065b510
c04418d4:	e28dd00c 	add	sp, sp, #12
c04418d8:	e49df004 	pop	{pc}		@ (ldr pc, [sp], #4)
c04418dc:	e28dd00c 	add	sp, sp, #12
c04418e0:	e49de004 	pop	{lr}		@ (ldr lr, [sp], #4)
c04418e4:	eaffffb7 	b	0xc04417c8
c04418e8:	c0a5d4d0 	ldrdgt	sp, [r5], r0	@ <UNPREDICTABLE>
c04418ec:	c0802a80 	addgt	r2, r0, r0, lsl #21
c04418f0:	c0802a99 	umullgt	r2, r0, r9, sl
c04418f4:	e59f3068 	ldr	r3, [pc, #104]	@ 0xc0441964
c04418f8:	e92d4007 	push	{r0, r1, r2, lr}
c04418fc:	e1a00002 	mov	r0, r2
c0441900:	e5932000 	ldr	r2, [r3]
c0441904:	e592310c 	ldr	r3, [r2, #268]	@ 0x10c
c0441908:	e3530000 	cmp	r3, #0
c044190c:	1a000005 	bne	0xc0441928
c0441910:	e2823e11 	add	r3, r2, #272	@ 0x110
c0441914:	e3a01064 	mov	r1, #100	@ 0x64
c0441918:	e59f2048 	ldr	r2, [pc, #72]	@ 0xc0441968
c044191c:	e28dd00c 	add	sp, sp, #12
c0441920:	e49de004 	pop	{lr}		@ (ldr lr, [sp], #4)
c0441924:	ea0866f9 	b	0xc065b510
c0441928:	e5923174 	ldr	r3, [r2, #372]	@ 0x174
c044192c:	e3530000 	cmp	r3, #0
c0441930:	1a000008 	bne	0xc0441958
c0441934:	e2823f5e 	add	r3, r2, #376	@ 0x178
c0441938:	e5922188 	ldr	r2, [r2, #392]	@ 0x188
c044193c:	e3a010c8 	mov	r1, #200	@ 0xc8
c0441940:	e1d330b0 	ldrh	r3, [r3]
c0441944:	e58d2000 	str	r2, [sp]
c0441948:	e59f201c 	ldr	r2, [pc, #28]	@ 0xc044196c
c044194c:	eb0866ef 	bl	0xc065b510
c0441950:	e28dd00c 	add	sp, sp, #12
c0441954:	e49df004 	pop	{pc}		@ (ldr pc, [sp], #4)
c0441958:	e28dd00c 	add	sp, sp, #12
c044195c:	e49de004 	pop	{lr}		@ (ldr lr, [sp], #4)
c0441960:	eaffff98 	b	0xc04417c8
c0441964:	c0a5d4d0 	ldrdgt	sp, [r5], r0	@ <UNPREDICTABLE>
c0441968:	c0802ac6 	addgt	r2, r0, r6, asr #21
c044196c:	c0802ae3 	addgt	r2, r0, r3, ror #21
c0441970:	e59f3070 	ldr	r3, [pc, #112]	@ 0xc04419e8
c0441974:	e92d4007 	push	{r0, r1, r2, lr}
c0441978:	e1a00002 	mov	r0, r2
c044197c:	e5933000 	ldr	r3, [r3]
c0441980:	e593210c 	ldr	r2, [r3, #268]	@ 0x10c
c0441984:	e3520000 	cmp	r2, #0
c0441988:	1a000005 	bne	0xc04419a4
c044198c:	e2833e11 	add	r3, r3, #272	@ 0x110
c0441990:	e59f2054 	ldr	r2, [pc, #84]	@ 0xc04419ec
c0441994:	e3a01064 	mov	r1, #100	@ 0x64
c0441998:	e28dd00c 	add	sp, sp, #12
c044199c:	e49de004 	pop	{lr}		@ (ldr lr, [sp], #4)
c04419a0:	ea0866da 	b	0xc065b510
c04419a4:	e5932174 	ldr	r2, [r3, #372]	@ 0x174
c04419a8:	e3520000 	cmp	r2, #0
c04419ac:	1a00000a 	bne	0xc04419dc
c04419b0:	e5932188 	ldr	r2, [r3, #392]	@ 0x188
c04419b4:	e3a010c8 	mov	r1, #200	@ 0xc8
c04419b8:	e58d2004 	str	r2, [sp, #4]
c04419bc:	e2832f5e 	add	r2, r3, #376	@ 0x178
c04419c0:	e1d220b0 	ldrh	r2, [r2]
c04419c4:	e58d2000 	str	r2, [sp]
c04419c8:	e59f2020 	ldr	r2, [pc, #32]	@ 0xc04419f0
c04419cc:	e593318c 	ldr	r3, [r3, #396]	@ 0x18c
c04419d0:	eb0866ce 	bl	0xc065b510
c04419d4:	e28dd00c 	add	sp, sp, #12
c04419d8:	e49df004 	pop	{pc}		@ (ldr pc, [sp], #4)
c04419dc:	e28dd00c 	add	sp, sp, #12
c04419e0:	e49de004 	pop	{lr}		@ (ldr lr, [sp], #4)
c04419e4:	eaffff77 	b	0xc04417c8
c04419e8:	c0a5d4d0 	ldrdgt	sp, [r5], r0	@ <UNPREDICTABLE>
c04419ec:	c0802b11 	addgt	r2, r0, r1, lsl fp
c04419f0:	c0802b29 	addgt	r2, r0, r9, lsr #22
c04419f4:	e92d4070 	push	{r4, r5, r6, lr}
c04419f8:	e1a06003 	mov	r6, r3
c04419fc:	e59f408c 	ldr	r4, [pc, #140]	@ 0xc0441a90
c0441a00:	e5940000 	ldr	r0, [r4]
c0441a04:	e5d0308a 	ldrb	r3, [r0, #138]	@ 0x8a
c0441a08:	e3530000 	cmp	r3, #0
c0441a0c:	0a00001d 	beq	0xc0441a88
c0441a10:	e1a05002 	mov	r5, r2
c0441a14:	e2800070 	add	r0, r0, #112	@ 0x70
c0441a18:	eb088221 	bl	0xc06622a4
c0441a1c:	e5d53000 	ldrb	r3, [r5]
c0441a20:	e3530031 	cmp	r3, #49	@ 0x31
c0441a24:	1a000002 	bne	0xc0441a34
c0441a28:	e3a01001 	mov	r1, #1
c0441a2c:	e5940000 	ldr	r0, [r4]
c0441a30:	ebfff0f5 	bl	0xc043de0c
c0441a34:	e5d53000 	ldrb	r3, [r5]
c0441a38:	e3530030 	cmp	r3, #48	@ 0x30
c0441a3c:	1a000002 	bne	0xc0441a4c
c0441a40:	e3a01000 	mov	r1, #0
c0441a44:	e5940000 	ldr	r0, [r4]
c0441a48:	ebfff0ef 	bl	0xc043de0c
c0441a4c:	e5d53000 	ldrb	r3, [r5]
c0441a50:	e3530032 	cmp	r3, #50	@ 0x32
c0441a54:	1a000008 	bne	0xc0441a7c
c0441a58:	e5940000 	ldr	r0, [r4]
c0441a5c:	e5d0308b 	ldrb	r3, [r0, #139]	@ 0x8b
c0441a60:	e3530000 	cmp	r3, #0
c0441a64:	0a000004 	beq	0xc0441a7c
c0441a68:	e5d0306c 	ldrb	r3, [r0, #108]	@ 0x6c
c0441a6c:	e3530000 	cmp	r3, #0
c0441a70:	0a000001 	beq	0xc0441a7c
c0441a74:	e3a01001 	mov	r1, #1
c0441a78:	ebfff6a8 	bl	0xc043f520
c0441a7c:	e5940000 	ldr	r0, [r4]
c0441a80:	e2800070 	add	r0, r0, #112	@ 0x70
c0441a84:	eb08806f 	bl	0xc0661c48
c0441a88:	e1a00006 	mov	r0, r6
c0441a8c:	e8bd8070 	pop	{r4, r5, r6, pc}
c0441a90:	c0a5d4d0 	ldrdgt	sp, [r5], r0	@ <UNPREDICTABLE>
c0441a94:	e92d41f0 	push	{r4, r5, r6, r7, r8, lr}
c0441a98:	e1a05000 	mov	r5, r0
c0441a9c:	e59f104c 	ldr	r1, [pc, #76]	@ 0xc0441af0
c0441aa0:	e3a04000 	mov	r4, #0
c0441aa4:	ebf6bd72 	bl	0xc01f1074
c0441aa8:	e59f6044 	ldr	r6, [pc, #68]	@ 0xc0441af4
c0441aac:	e59f7044 	ldr	r7, [pc, #68]	@ 0xc0441af8
c0441ab0:	e59f8044 	ldr	r8, [pc, #68]	@ 0xc0441afc
c0441ab4:	e5963000 	ldr	r3, [r6]
c0441ab8:	e5933188 	ldr	r3, [r3, #392]	@ 0x188
c0441abc:	e1540003 	cmp	r4, r3
c0441ac0:	3a000003 	bcc	0xc0441ad4
c0441ac4:	e1a00005 	mov	r0, r5
c0441ac8:	e59f1030 	ldr	r1, [pc, #48]	@ 0xc0441b00
c0441acc:	e8bd41f0 	pop	{r4, r5, r6, r7, r8, lr}
c0441ad0:	eaf6bd67 	b	0xc01f1074
c0441ad4:	e5973000 	ldr	r3, [r7]
c0441ad8:	e1a01008 	mov	r1, r8
c0441adc:	e1a00005 	mov	r0, r5
c0441ae0:	e7d32004 	ldrb	r2, [r3, r4]
c0441ae4:	e2844001 	add	r4, r4, #1
c0441ae8:	ebf6bd61 	bl	0xc01f1074
c0441aec:	eafffff0 	b	0xc0441ab4
c0441af0:	c0802a2d 	addgt	r2, r0, sp, lsr #20
c0441af4:	c0a5d4d0 	ldrdgt	sp, [r5], r0	@ <UNPREDICTABLE>
c0441af8:	c0a5d4c8 	adcgt	sp, r5, r8, asr #9
c0441afc:	c07ff290 			@ <UNDEFINED> instruction: 0xc07ff290
c0441b00:	c08106b1 			@ <UNDEFINED> instruction: 0xc08106b1
c0441b04:	e59f304c 	ldr	r3, [pc, #76]	@ 0xc0441b58
c0441b08:	e92d4010 	push	{r4, lr}
c0441b0c:	e5932000 	ldr	r2, [r3]
c0441b10:	e592310c 	ldr	r3, [r2, #268]	@ 0x10c
c0441b14:	e3530000 	cmp	r3, #0
c0441b18:	1a000004 	bne	0xc0441b30
c0441b1c:	e2822e11 	add	r2, r2, #272	@ 0x110
c0441b20:	e59f1034 	ldr	r1, [pc, #52]	@ 0xc0441b5c
c0441b24:	ebf6bd52 	bl	0xc01f1074
c0441b28:	e3a00000 	mov	r0, #0
c0441b2c:	e8bd8010 	pop	{r4, pc}
c0441b30:	e5923174 	ldr	r3, [r2, #372]	@ 0x174
c0441b34:	e3530000 	cmp	r3, #0
c0441b38:	1a000004 	bne	0xc0441b50
c0441b3c:	e5923188 	ldr	r3, [r2, #392]	@ 0x188
c0441b40:	e59f1018 	ldr	r1, [pc, #24]	@ 0xc0441b60
c0441b44:	e592218c 	ldr	r2, [r2, #396]	@ 0x18c
c0441b48:	ebf6bd49 	bl	0xc01f1074
c0441b4c:	eafffff5 	b	0xc0441b28
c0441b50:	ebffffcf 	bl	0xc0441a94
c0441b54:	eafffff3 	b	0xc0441b28
c0441b58:	c0a5d4d0 	ldrdgt	sp, [r5], r0	@ <UNPREDICTABLE>
c0441b5c:	c0802a80 	addgt	r2, r0, r0, lsl #21
c0441b60:	c0802a99 	umullgt	r2, r0, r9, sl
c0441b64:	e59f305c 	ldr	r3, [pc, #92]	@ 0xc0441bc8
c0441b68:	e92d4007 	push	{r0, r1, r2, lr}
c0441b6c:	e5932000 	ldr	r2, [r3]
c0441b70:	e592310c 	ldr	r3, [r2, #268]	@ 0x10c
c0441b74:	e3530000 	cmp	r3, #0
c0441b78:	1a000005 	bne	0xc0441b94
c0441b7c:	e2822e11 	add	r2, r2, #272	@ 0x110
c0441b80:	e59f1044 	ldr	r1, [pc, #68]	@ 0xc0441bcc
c0441b84:	ebf6bd3a 	bl	0xc01f1074
c0441b88:	e3a00000 	mov	r0, #0
c0441b8c:	e28dd00c 	add	sp, sp, #12
c0441b90:	e49df004 	pop	{pc}		@ (ldr pc, [sp], #4)
c0441b94:	e5923174 	ldr	r3, [r2, #372]	@ 0x174
c0441b98:	e3530000 	cmp	r3, #0
c0441b9c:	1a000007 	bne	0xc0441bc0
c0441ba0:	e5921188 	ldr	r1, [r2, #392]	@ 0x188
c0441ba4:	e2823f5e 	add	r3, r2, #376	@ 0x178
c0441ba8:	e1d330b0 	ldrh	r3, [r3]
c0441bac:	e58d1000 	str	r1, [sp]
c0441bb0:	e59f1018 	ldr	r1, [pc, #24]	@ 0xc0441bd0
c0441bb4:	e592218c 	ldr	r2, [r2, #396]	@ 0x18c
c0441bb8:	ebf6bd2d 	bl	0xc01f1074
c0441bbc:	eafffff1 	b	0xc0441b88
c0441bc0:	ebffffb3 	bl	0xc0441a94
c0441bc4:	eaffffef 	b	0xc0441b88
c0441bc8:	c0a5d4d0 	ldrdgt	sp, [r5], r0	@ <UNPREDICTABLE>
c0441bcc:	c0802b11 	addgt	r2, r0, r1, lsl fp
c0441bd0:	c0802b29 	addgt	r2, r0, r9, lsr #22
c0441bd4:	e59f3050 	ldr	r3, [pc, #80]	@ 0xc0441c2c
c0441bd8:	e92d4010 	push	{r4, lr}
c0441bdc:	e5932000 	ldr	r2, [r3]
c0441be0:	e592310c 	ldr	r3, [r2, #268]	@ 0x10c
c0441be4:	e3530000 	cmp	r3, #0
c0441be8:	1a000004 	bne	0xc0441c00
c0441bec:	e2822e11 	add	r2, r2, #272	@ 0x110
c0441bf0:	e59f1038 	ldr	r1, [pc, #56]	@ 0xc0441c30
c0441bf4:	ebf6bd1e 	bl	0xc01f1074
c0441bf8:	e3a00000 	mov	r0, #0
c0441bfc:	e8bd8010 	pop	{r4, pc}
c0441c00:	e5923174 	ldr	r3, [r2, #372]	@ 0x174
c0441c04:	e3530000 	cmp	r3, #0
c0441c08:	1a000005 	bne	0xc0441c24
c0441c0c:	e2821f5e 	add	r1, r2, #376	@ 0x178
c0441c10:	e5923188 	ldr	r3, [r2, #392]	@ 0x188
c0441c14:	e1d120b0 	ldrh	r2, [r1]
c0441c18:	e59f1014 	ldr	r1, [pc, #20]	@ 0xc0441c34
c0441c1c:	ebf6bd14 	bl	0xc01f1074
c0441c20:	eafffff4 	b	0xc0441bf8
c0441c24:	ebffff9a 	bl	0xc0441a94
c0441c28:	eafffff2 	b	0xc0441bf8
c0441c2c:	c0a5d4d0 	ldrdgt	sp, [r5], r0	@ <UNPREDICTABLE>
c0441c30:	c0802ac6 	addgt	r2, r0, r6, asr #21
c0441c34:	c0802ae3 	addgt	r2, r0, r3, ror #21
c0441c38:	e59f3048 	ldr	r3, [pc, #72]	@ 0xc0441c88
c0441c3c:	e92d4013 	push	{r0, r1, r4, lr}
c0441c40:	e2411001 	sub	r1, r1, #1
c0441c44:	e5932000 	ldr	r2, [r3]
c0441c48:	e3510001 	cmp	r1, #1
c0441c4c:	e1a04003 	mov	r4, r3
c0441c50:	83e00004 	mvnhi	r0, #4
c0441c54:	e58d2004 	str	r2, [sp, #4]
c0441c58:	8a000003 	bhi	0xc0441c6c
c0441c5c:	e1a0200d 	mov	r2, sp
c0441c60:	e3a01010 	mov	r1, #16
c0441c64:	ebfad270 	bl	0xc02f662c
c0441c68:	e59d0000 	ldr	r0, [sp]
c0441c6c:	e59d2004 	ldr	r2, [sp, #4]
c0441c70:	e5943000 	ldr	r3, [r4]
c0441c74:	e1520003 	cmp	r2, r3
c0441c78:	0a000000 	beq	0xc0441c80
c0441c7c:	ebf35d4a 	bl	0xc01191ac
c0441c80:	e28dd008 	add	sp, sp, #8
c0441c84:	e8bd8010 	pop	{r4, pc}
c0441c88:	c0a04e08 	adcgt	r4, r0, r8, lsl #28
c0441c8c:	e92d4ff0 	push	{r4, r5, r6, r7, r8, r9, sl, fp, lr}
c0441c90:	e24dd024 	sub	sp, sp, #36	@ 0x24
c0441c94:	e59f5278 	ldr	r5, [pc, #632]	@ 0xc0441f14
c0441c98:	e3a04000 	mov	r4, #0
c0441c9c:	e58d2008 	str	r2, [sp, #8]
c0441ca0:	e1a08001 	mov	r8, r1
c0441ca4:	e59f226c 	ldr	r2, [pc, #620]	@ 0xc0441f18
c0441ca8:	e1a07004 	mov	r7, r4
c0441cac:	e59fb268 	ldr	fp, [pc, #616]	@ 0xc0441f1c
c0441cb0:	e1a0a004 	mov	sl, r4
c0441cb4:	e1a06004 	mov	r6, r4
c0441cb8:	e1a01004 	mov	r1, r4
c0441cbc:	e5923000 	ldr	r3, [r2]
c0441cc0:	e1a09004 	mov	r9, r4
c0441cc4:	e58d4004 	str	r4, [sp, #4]
c0441cc8:	e58d200c 	str	r2, [sp, #12]
c0441ccc:	e58d301c 	str	r3, [sp, #28]
c0441cd0:	e5953000 	ldr	r3, [r5]
c0441cd4:	e583410c 	str	r4, [r3, #268]	@ 0x10c
c0441cd8:	e59d3008 	ldr	r3, [sp, #8]
c0441cdc:	e1560003 	cmp	r6, r3
c0441ce0:	1a000032 	bne	0xc0441db0
c0441ce4:	e0462001 	sub	r2, r6, r1
c0441ce8:	e28d0012 	add	r0, sp, #18
c0441cec:	e0881001 	add	r1, r8, r1
c0441cf0:	e3a03000 	mov	r3, #0
c0441cf4:	e58d3012 	str	r3, [sp, #18]
c0441cf8:	e58d3016 	str	r3, [sp, #22]
c0441cfc:	e1cd31ba 	strh	r3, [sp, #26]
c0441d00:	eb085642 	bl	0xc0657610
c0441d04:	e28d0012 	add	r0, sp, #18
c0441d08:	eb085532 	bl	0xc06571d8
c0441d0c:	e1a01000 	mov	r1, r0
c0441d10:	e28d0012 	add	r0, sp, #18
c0441d14:	ebffffc7 	bl	0xc0441c38
c0441d18:	e3500000 	cmp	r0, #0
c0441d1c:	a59f31f8 	ldrge	r3, [pc, #504]	@ 0xc0441f1c
c0441d20:	a5933000 	ldrge	r3, [r3]
c0441d24:	a7c30004 	strbge	r0, [r3, r4]
c0441d28:	a2844001 	addge	r4, r4, #1
c0441d2c:	e3570001 	cmp	r7, #1
c0441d30:	1a00006c 	bne	0xc0441ee8
c0441d34:	e59f31e0 	ldr	r3, [pc, #480]	@ 0xc0441f1c
c0441d38:	e5933000 	ldr	r3, [r3]
c0441d3c:	e5d34000 	ldrb	r4, [r3]
c0441d40:	e5950000 	ldr	r0, [r5]
c0441d44:	e1dd20b4 	ldrh	r2, [sp, #4]
c0441d48:	e2803f5e 	add	r3, r0, #376	@ 0x178
c0441d4c:	e2800070 	add	r0, r0, #112	@ 0x70
c0441d50:	e1c320b0 	strh	r2, [r3]
c0441d54:	e5807104 	str	r7, [r0, #260]	@ 0x104
c0441d58:	e5804118 	str	r4, [r0, #280]	@ 0x118
c0441d5c:	eb088150 	bl	0xc06622a4
c0441d60:	e5953000 	ldr	r3, [r5]
c0441d64:	e3570001 	cmp	r7, #1
c0441d68:	e5932188 	ldr	r2, [r3, #392]	@ 0x188
c0441d6c:	1a000053 	bne	0xc0441ec0
c0441d70:	e59f11a8 	ldr	r1, [pc, #424]	@ 0xc0441f20
c0441d74:	e5d30178 	ldrb	r0, [r3, #376]	@ 0x178
c0441d78:	e5911000 	ldr	r1, [r1]
c0441d7c:	ebfff5ff 	bl	0xc043f580
c0441d80:	e1a04000 	mov	r4, r0
c0441d84:	e5950000 	ldr	r0, [r5]
c0441d88:	e2800070 	add	r0, r0, #112	@ 0x70
c0441d8c:	eb087fad 	bl	0xc0661c48
c0441d90:	e3540000 	cmp	r4, #0
c0441d94:	aa00004e 	bge	0xc0441ed4
c0441d98:	e5950000 	ldr	r0, [r5]
c0441d9c:	e3a02064 	mov	r2, #100	@ 0x64
c0441da0:	e59f117c 	ldr	r1, [pc, #380]	@ 0xc0441f24
c0441da4:	e2800e11 	add	r0, r0, #272	@ 0x110
c0441da8:	eb085618 	bl	0xc0657610
c0441dac:	ea00001a 	b	0xc0441e1c
c0441db0:	e7d82006 	ldrb	r2, [r8, r6]
c0441db4:	e3520020 	cmp	r2, #32
c0441db8:	1a000036 	bne	0xc0441e98
c0441dbc:	e0462001 	sub	r2, r6, r1
c0441dc0:	e28d0012 	add	r0, sp, #18
c0441dc4:	e2822001 	add	r2, r2, #1
c0441dc8:	e0881001 	add	r1, r8, r1
c0441dcc:	e58d9012 	str	r9, [sp, #18]
c0441dd0:	e58d9016 	str	r9, [sp, #22]
c0441dd4:	e1cd91ba 	strh	r9, [sp, #26]
c0441dd8:	eb08560c 	bl	0xc0657610
c0441ddc:	e35a0000 	cmp	sl, #0
c0441de0:	e28d0012 	add	r0, sp, #18
c0441de4:	1a000013 	bne	0xc0441e38
c0441de8:	eb0854fa 	bl	0xc06571d8
c0441dec:	e1a01000 	mov	r1, r0
c0441df0:	e28d0012 	add	r0, sp, #18
c0441df4:	ebffff8f 	bl	0xc0441c38
c0441df8:	e3500001 	cmp	r0, #1
c0441dfc:	e1a07000 	mov	r7, r0
c0441e00:	9a00002a 	bls	0xc0441eb0
c0441e04:	e5950000 	ldr	r0, [r5]
c0441e08:	e3a02064 	mov	r2, #100	@ 0x64
c0441e0c:	e59f1114 	ldr	r1, [pc, #276]	@ 0xc0441f28
c0441e10:	e2800e11 	add	r0, r0, #272	@ 0x110
c0441e14:	e3e04004 	mvn	r4, #4
c0441e18:	eb0855fc 	bl	0xc0657610
c0441e1c:	e59d300c 	ldr	r3, [sp, #12]
c0441e20:	e1a00004 	mov	r0, r4
c0441e24:	e59d201c 	ldr	r2, [sp, #28]
c0441e28:	e5933000 	ldr	r3, [r3]
c0441e2c:	e1520003 	cmp	r2, r3
c0441e30:	0a000035 	beq	0xc0441f0c
c0441e34:	ebf35cdc 	bl	0xc01191ac
c0441e38:	e35a0001 	cmp	sl, #1
c0441e3c:	1a00000a 	bne	0xc0441e6c
c0441e40:	eb0854e4 	bl	0xc06571d8
c0441e44:	e1a01000 	mov	r1, r0
c0441e48:	e28d0012 	add	r0, sp, #18
c0441e4c:	ebffff79 	bl	0xc0441c38
c0441e50:	e2503000 	subs	r3, r0, #0
c0441e54:	e58d3004 	str	r3, [sp, #4]
c0441e58:	aa000016 	bge	0xc0441eb8
c0441e5c:	e5950000 	ldr	r0, [r5]
c0441e60:	e3a02064 	mov	r2, #100	@ 0x64
c0441e64:	e59f10c0 	ldr	r1, [pc, #192]	@ 0xc0441f2c
c0441e68:	eaffffe8 	b	0xc0441e10
c0441e6c:	eb0854d9 	bl	0xc06571d8
c0441e70:	e1a01000 	mov	r1, r0
c0441e74:	e28d0012 	add	r0, sp, #18
c0441e78:	ebffff6e 	bl	0xc0441c38
c0441e7c:	e3500000 	cmp	r0, #0
c0441e80:	ba000006 	blt	0xc0441ea0
c0441e84:	e59b2000 	ldr	r2, [fp]
c0441e88:	e28aa001 	add	sl, sl, #1
c0441e8c:	e7c20004 	strb	r0, [r2, r4]
c0441e90:	e2844001 	add	r4, r4, #1
c0441e94:	e2861001 	add	r1, r6, #1
c0441e98:	e2866001 	add	r6, r6, #1
c0441e9c:	eaffff8d 	b	0xc0441cd8
c0441ea0:	e5950000 	ldr	r0, [r5]
c0441ea4:	e3a02064 	mov	r2, #100	@ 0x64
c0441ea8:	e59f1080 	ldr	r1, [pc, #128]	@ 0xc0441f30
c0441eac:	eaffffd7 	b	0xc0441e10
c0441eb0:	e3a0a001 	mov	sl, #1
c0441eb4:	eafffff6 	b	0xc0441e94
c0441eb8:	e3a0a002 	mov	sl, #2
c0441ebc:	eafffff4 	b	0xc0441e94
c0441ec0:	e59f1054 	ldr	r1, [pc, #84]	@ 0xc0441f1c
c0441ec4:	e5d30178 	ldrb	r0, [r3, #376]	@ 0x178
c0441ec8:	e5911000 	ldr	r1, [r1]
c0441ecc:	ebfff516 	bl	0xc043f32c
c0441ed0:	eaffffaa 	b	0xc0441d80
c0441ed4:	e5953000 	ldr	r3, [r5]
c0441ed8:	e3a02001 	mov	r2, #1
c0441edc:	e1a04006 	mov	r4, r6
c0441ee0:	e583210c 	str	r2, [r3, #268]	@ 0x10c
c0441ee4:	eaffffcc 	b	0xc0441e1c
c0441ee8:	e3540000 	cmp	r4, #0
c0441eec:	e2043001 	and	r3, r4, #1
c0441ef0:	b2633000 	rsblt	r3, r3, #0
c0441ef4:	e3530001 	cmp	r3, #1
c0441ef8:	1affff90 	bne	0xc0441d40
c0441efc:	e5950000 	ldr	r0, [r5]
c0441f00:	e3a02064 	mov	r2, #100	@ 0x64
c0441f04:	e59f1028 	ldr	r1, [pc, #40]	@ 0xc0441f34
c0441f08:	eaffffc0 	b	0xc0441e10
c0441f0c:	e28dd024 	add	sp, sp, #36	@ 0x24
c0441f10:	e8bd8ff0 	pop	{r4, r5, r6, r7, r8, r9, sl, fp, pc}
c0441f14:	c0a5d4d0 	ldrdgt	sp, [r5], r0	@ <UNPREDICTABLE>
c0441f18:	c0a04e08 	adcgt	r4, r0, r8, lsl #28
c0441f1c:	c0a5d4cc 	adcgt	sp, r5, ip, asr #9
c0441f20:	c0a5d4c8 	adcgt	sp, r5, r8, asr #9
c0441f24:	c0802bcf 	addgt	r2, r0, pc, asr #23
c0441f28:	c0802b66 	addgt	r2, r0, r6, ror #22
c0441f2c:	c0802b83 	addgt	r2, r0, r3, lsl #23
c0441f30:	c0802b94 	umullgt	r2, r0, r4, fp
c0441f34:	c0802ba5 	addgt	r2, r0, r5, lsr #23
c0441f38:	e92d4ff0 	push	{r4, r5, r6, r7, r8, r9, sl, fp, lr}
c0441f3c:	e24dd024 	sub	sp, sp, #36	@ 0x24
c0441f40:	e59f521c 	ldr	r5, [pc, #540]	@ 0xc0442164
c0441f44:	e3a04000 	mov	r4, #0
c0441f48:	e58d2008 	str	r2, [sp, #8]
c0441f4c:	e1a08001 	mov	r8, r1
c0441f50:	e59f2210 	ldr	r2, [pc, #528]	@ 0xc0442168
c0441f54:	e1a07004 	mov	r7, r4
c0441f58:	e59fb20c 	ldr	fp, [pc, #524]	@ 0xc044216c
c0441f5c:	e1a0a004 	mov	sl, r4
c0441f60:	e1a06004 	mov	r6, r4
c0441f64:	e1a01004 	mov	r1, r4
c0441f68:	e5923000 	ldr	r3, [r2]
c0441f6c:	e1a09004 	mov	r9, r4
c0441f70:	e58d4004 	str	r4, [sp, #4]
c0441f74:	e58d200c 	str	r2, [sp, #12]
c0441f78:	e58d301c 	str	r3, [sp, #28]
c0441f7c:	e5953000 	ldr	r3, [r5]
c0441f80:	e583410c 	str	r4, [r3, #268]	@ 0x10c
c0441f84:	e59d3008 	ldr	r3, [sp, #8]
c0441f88:	e1560003 	cmp	r6, r3
c0441f8c:	1a000030 	bne	0xc0442054
c0441f90:	e0462001 	sub	r2, r6, r1
c0441f94:	e28d0012 	add	r0, sp, #18
c0441f98:	e0881001 	add	r1, r8, r1
c0441f9c:	e3a03000 	mov	r3, #0
c0441fa0:	e58d3012 	str	r3, [sp, #18]
c0441fa4:	e58d3016 	str	r3, [sp, #22]
c0441fa8:	e1cd31ba 	strh	r3, [sp, #26]
c0441fac:	eb085597 	bl	0xc0657610
c0441fb0:	e28d0012 	add	r0, sp, #18
c0441fb4:	eb085487 	bl	0xc06571d8
c0441fb8:	e1a01000 	mov	r1, r0
c0441fbc:	e28d0012 	add	r0, sp, #18
c0441fc0:	ebffff1c 	bl	0xc0441c38
c0441fc4:	e3500000 	cmp	r0, #0
c0441fc8:	a59f319c 	ldrge	r3, [pc, #412]	@ 0xc044216c
c0441fcc:	a5933000 	ldrge	r3, [r3]
c0441fd0:	a7c30004 	strbge	r0, [r3, r4]
c0441fd4:	a2844001 	addge	r4, r4, #1
c0441fd8:	e3570001 	cmp	r7, #1
c0441fdc:	e5950000 	ldr	r0, [r5]
c0441fe0:	059f3184 	ldreq	r3, [pc, #388]	@ 0xc044216c
c0441fe4:	e2800070 	add	r0, r0, #112	@ 0x70
c0441fe8:	05933000 	ldreq	r3, [r3]
c0441fec:	05d32000 	ldrbeq	r2, [r3]
c0441ff0:	05d34001 	ldrbeq	r4, [r3, #1]
c0441ff4:	e59d3004 	ldr	r3, [sp, #4]
c0441ff8:	00844402 	addeq	r4, r4, r2, lsl #8
c0441ffc:	e5807104 	str	r7, [r0, #260]	@ 0x104
c0442000:	e5804118 	str	r4, [r0, #280]	@ 0x118
c0442004:	e580311c 	str	r3, [r0, #284]	@ 0x11c
c0442008:	eb0880a5 	bl	0xc06622a4
c044200c:	e5953000 	ldr	r3, [r5]
c0442010:	e59f1158 	ldr	r1, [pc, #344]	@ 0xc0442170
c0442014:	e5932188 	ldr	r2, [r3, #392]	@ 0x188
c0442018:	e5911000 	ldr	r1, [r1]
c044201c:	e593018c 	ldr	r0, [r3, #396]	@ 0x18c
c0442020:	ebfff237 	bl	0xc043e904
c0442024:	e1a04000 	mov	r4, r0
c0442028:	e5950000 	ldr	r0, [r5]
c044202c:	e2800070 	add	r0, r0, #112	@ 0x70
c0442030:	eb087f04 	bl	0xc0661c48
c0442034:	e3540000 	cmp	r4, #0
c0442038:	aa000042 	bge	0xc0442148
c044203c:	e5950000 	ldr	r0, [r5]
c0442040:	e3a02064 	mov	r2, #100	@ 0x64
c0442044:	e59f1128 	ldr	r1, [pc, #296]	@ 0xc0442174
c0442048:	e2800e11 	add	r0, r0, #272	@ 0x110
c044204c:	eb08556f 	bl	0xc0657610
c0442050:	ea00001a 	b	0xc04420c0
c0442054:	e7d82006 	ldrb	r2, [r8, r6]
c0442058:	e3520020 	cmp	r2, #32
c044205c:	1a000027 	bne	0xc0442100
c0442060:	e0462001 	sub	r2, r6, r1
c0442064:	e28d0012 	add	r0, sp, #18
c0442068:	e2822001 	add	r2, r2, #1
c044206c:	e0881001 	add	r1, r8, r1
c0442070:	e58d9012 	str	r9, [sp, #18]
c0442074:	e58d9016 	str	r9, [sp, #22]
c0442078:	e1cd91ba 	strh	r9, [sp, #26]
c044207c:	eb085563 	bl	0xc0657610
c0442080:	e35a0000 	cmp	sl, #0
c0442084:	e28d0012 	add	r0, sp, #18
c0442088:	1a000013 	bne	0xc04420dc
c044208c:	eb085451 	bl	0xc06571d8
c0442090:	e1a01000 	mov	r1, r0
c0442094:	e28d0012 	add	r0, sp, #18
c0442098:	ebfffee6 	bl	0xc0441c38
c044209c:	e3500001 	cmp	r0, #1
c04420a0:	e1a07000 	mov	r7, r0
c04420a4:	9a000025 	bls	0xc0442140
c04420a8:	e5950000 	ldr	r0, [r5]
c04420ac:	e3a02064 	mov	r2, #100	@ 0x64
c04420b0:	e59f10c0 	ldr	r1, [pc, #192]	@ 0xc0442178
c04420b4:	e2800e11 	add	r0, r0, #272	@ 0x110
c04420b8:	e3e04004 	mvn	r4, #4
c04420bc:	eb085553 	bl	0xc0657610
c04420c0:	e59d300c 	ldr	r3, [sp, #12]
c04420c4:	e1a00004 	mov	r0, r4
c04420c8:	e59d201c 	ldr	r2, [sp, #28]
c04420cc:	e5933000 	ldr	r3, [r3]
c04420d0:	e1520003 	cmp	r2, r3
c04420d4:	0a000020 	beq	0xc044215c
c04420d8:	ebf35c33 	bl	0xc01191ac
c04420dc:	e35a0001 	cmp	sl, #1
c04420e0:	1a000008 	bne	0xc0442108
c04420e4:	eb08543b 	bl	0xc06571d8
c04420e8:	e3a0a002 	mov	sl, #2
c04420ec:	e1a01000 	mov	r1, r0
c04420f0:	e28d0012 	add	r0, sp, #18
c04420f4:	ebfffecf 	bl	0xc0441c38
c04420f8:	e58d0004 	str	r0, [sp, #4]
c04420fc:	e2861001 	add	r1, r6, #1
c0442100:	e2866001 	add	r6, r6, #1
c0442104:	eaffff9e 	b	0xc0441f84
c0442108:	eb085432 	bl	0xc06571d8
c044210c:	e1a01000 	mov	r1, r0
c0442110:	e28d0012 	add	r0, sp, #18
c0442114:	ebfffec7 	bl	0xc0441c38
c0442118:	e3500000 	cmp	r0, #0
c044211c:	a59b2000 	ldrge	r2, [fp]
c0442120:	a28aa001 	addge	sl, sl, #1
c0442124:	a7c20004 	strbge	r0, [r2, r4]
c0442128:	a2844001 	addge	r4, r4, #1
c044212c:	aafffff2 	bge	0xc04420fc
c0442130:	e5950000 	ldr	r0, [r5]
c0442134:	e3a02064 	mov	r2, #100	@ 0x64
c0442138:	e59f103c 	ldr	r1, [pc, #60]	@ 0xc044217c
c044213c:	eaffffdc 	b	0xc04420b4
c0442140:	e3a0a001 	mov	sl, #1
c0442144:	eaffffec 	b	0xc04420fc
c0442148:	e5953000 	ldr	r3, [r5]
c044214c:	e3a02001 	mov	r2, #1
c0442150:	e1a04006 	mov	r4, r6
c0442154:	e583210c 	str	r2, [r3, #268]	@ 0x10c
c0442158:	eaffffd8 	b	0xc04420c0
c044215c:	e28dd024 	add	sp, sp, #36	@ 0x24
c0442160:	e8bd8ff0 	pop	{r4, r5, r6, r7, r8, r9, sl, fp, pc}
c0442164:	c0a5d4d0 	ldrdgt	sp, [r5], r0	@ <UNPREDICTABLE>
c0442168:	c0a04e08 	adcgt	r4, r0, r8, lsl #28
c044216c:	c0a5d4cc 	adcgt	sp, r5, ip, asr #9
c0442170:	c0a5d4c8 	adcgt	sp, r5, r8, asr #9
c0442174:	c0802bcf 	addgt	r2, r0, pc, asr #23
c0442178:	c0802b66 	addgt	r2, r0, r6, ror #22
c044217c:	c0802b94 	umullgt	r2, r0, r4, fp
c0442180:	e92d4ff0 	push	{r4, r5, r6, r7, r8, r9, sl, fp, lr}
c0442184:	e1a0b002 	mov	fp, r2
c0442188:	e59f23f8 	ldr	r2, [pc, #1016]	@ 0xc0442588
c044218c:	e24dd02c 	sub	sp, sp, #44	@ 0x2c
c0442190:	e59f93f4 	ldr	r9, [pc, #1012]	@ 0xc044258c
c0442194:	e28da01a 	add	sl, sp, #26
c0442198:	e58d300c 	str	r3, [sp, #12]
c044219c:	e3a05000 	mov	r5, #0
c04421a0:	e5923000 	ldr	r3, [r2]
c04421a4:	e1a07005 	mov	r7, r5
c04421a8:	e1a04005 	mov	r4, r5
c04421ac:	e1a08005 	mov	r8, r5
c04421b0:	e1a01005 	mov	r1, r5
c04421b4:	e1a0600a 	mov	r6, sl
c04421b8:	e58d3024 	str	r3, [sp, #36]	@ 0x24
c04421bc:	e5993000 	ldr	r3, [r9]
c04421c0:	e58d5008 	str	r5, [sp, #8]
c04421c4:	e58d5004 	str	r5, [sp, #4]
c04421c8:	e583510c 	str	r5, [r3, #268]	@ 0x10c
c04421cc:	e1a03005 	mov	r3, r5
c04421d0:	e58d2010 	str	r2, [sp, #16]
c04421d4:	e59d200c 	ldr	r2, [sp, #12]
c04421d8:	e1580002 	cmp	r8, r2
c04421dc:	1a00003d 	bne	0xc04422d8
c04421e0:	e0482001 	sub	r2, r8, r1
c04421e4:	e1a0000a 	mov	r0, sl
c04421e8:	e08b1001 	add	r1, fp, r1
c04421ec:	e3a03000 	mov	r3, #0
c04421f0:	e58d301a 	str	r3, [sp, #26]
c04421f4:	e58a3004 	str	r3, [sl, #4]
c04421f8:	e1ca30b8 	strh	r3, [sl, #8]
c04421fc:	eb085503 	bl	0xc0657610
c0442200:	e1a0000a 	mov	r0, sl
c0442204:	e59f6380 	ldr	r6, [pc, #896]	@ 0xc044258c
c0442208:	eb0853f2 	bl	0xc06571d8
c044220c:	e1a01000 	mov	r1, r0
c0442210:	e1a0000a 	mov	r0, sl
c0442214:	ebfffe87 	bl	0xc0441c38
c0442218:	e3500000 	cmp	r0, #0
c044221c:	a59f336c 	ldrge	r3, [pc, #876]	@ 0xc0442590
c0442220:	a5933000 	ldrge	r3, [r3]
c0442224:	a7c30005 	strbge	r0, [r3, r5]
c0442228:	a2855001 	addge	r5, r5, #1
c044222c:	e3540001 	cmp	r4, #1
c0442230:	1a0000c6 	bne	0xc0442550
c0442234:	e59f3354 	ldr	r3, [pc, #852]	@ 0xc0442590
c0442238:	e5933000 	ldr	r3, [r3]
c044223c:	e5d32000 	ldrb	r2, [r3]
c0442240:	e5d35001 	ldrb	r5, [r3, #1]
c0442244:	e0855402 	add	r5, r5, r2, lsl #8
c0442248:	e5990000 	ldr	r0, [r9]
c044224c:	e99d0006 	ldmib	sp, {r1, r2}
c0442250:	e2803f5e 	add	r3, r0, #376	@ 0x178
c0442254:	e2800070 	add	r0, r0, #112	@ 0x70
c0442258:	e0822401 	add	r2, r2, r1, lsl #8
c044225c:	e1c320b0 	strh	r2, [r3]
c0442260:	e5804104 	str	r4, [r0, #260]	@ 0x104
c0442264:	e5805118 	str	r5, [r0, #280]	@ 0x118
c0442268:	e580711c 	str	r7, [r0, #284]	@ 0x11c
c044226c:	eb08800c 	bl	0xc06622a4
c0442270:	e2472006 	sub	r2, r7, #6
c0442274:	e16f2f12 	clz	r2, r2
c0442278:	e2043001 	and	r3, r4, #1
c044227c:	e1a022a2 	lsr	r2, r2, #5
c0442280:	e1130002 	tst	r3, r2
c0442284:	0a000084 	beq	0xc044249c
c0442288:	e5990000 	ldr	r0, [r9]
c044228c:	e59f2300 	ldr	r2, [pc, #768]	@ 0xc0442594
c0442290:	e2801f5e 	add	r1, r0, #376	@ 0x178
c0442294:	e2803f62 	add	r3, r0, #392	@ 0x188
c0442298:	e5922000 	ldr	r2, [r2]
c044229c:	e1d330b0 	ldrh	r3, [r3]
c04422a0:	e1d110b0 	ldrh	r1, [r1]
c04422a4:	ebfff9d5 	bl	0xc0440a00
c04422a8:	e1a07000 	mov	r7, r0
c04422ac:	e5960000 	ldr	r0, [r6]
c04422b0:	e2800070 	add	r0, r0, #112	@ 0x70
c04422b4:	eb087e63 	bl	0xc0661c48
c04422b8:	e3570000 	cmp	r7, #0
c04422bc:	aa00009e 	bge	0xc044253c
c04422c0:	e5960000 	ldr	r0, [r6]
c04422c4:	e3a02064 	mov	r2, #100	@ 0x64
c04422c8:	e59f12c8 	ldr	r1, [pc, #712]	@ 0xc0442598
c04422cc:	e2800e11 	add	r0, r0, #272	@ 0x110
c04422d0:	eb0854ce 	bl	0xc0657610
c04422d4:	ea00001e 	b	0xc0442354
c04422d8:	e7db2008 	ldrb	r2, [fp, r8]
c04422dc:	e3520020 	cmp	r2, #32
c04422e0:	1a00005e 	bne	0xc0442460
c04422e4:	e0482001 	sub	r2, r8, r1
c04422e8:	e58d3014 	str	r3, [sp, #20]
c04422ec:	e2822001 	add	r2, r2, #1
c04422f0:	e3a03000 	mov	r3, #0
c04422f4:	e08b1001 	add	r1, fp, r1
c04422f8:	e5863000 	str	r3, [r6]
c04422fc:	e5863004 	str	r3, [r6, #4]
c0442300:	e1a00006 	mov	r0, r6
c0442304:	e1c630b8 	strh	r3, [r6, #8]
c0442308:	eb0854c0 	bl	0xc0657610
c044230c:	e59d3014 	ldr	r3, [sp, #20]
c0442310:	e3530000 	cmp	r3, #0
c0442314:	1a000015 	bne	0xc0442370
c0442318:	e1a00006 	mov	r0, r6
c044231c:	eb0853ad 	bl	0xc06571d8
c0442320:	e1a01000 	mov	r1, r0
c0442324:	e1a00006 	mov	r0, r6
c0442328:	ebfffe42 	bl	0xc0441c38
c044232c:	e3500001 	cmp	r0, #1
c0442330:	e1a04000 	mov	r4, r0
c0442334:	9a000050 	bls	0xc044247c
c0442338:	e59f324c 	ldr	r3, [pc, #588]	@ 0xc044258c
c044233c:	e3a02064 	mov	r2, #100	@ 0x64
c0442340:	e59f1254 	ldr	r1, [pc, #596]	@ 0xc044259c
c0442344:	e5930000 	ldr	r0, [r3]
c0442348:	e2800e11 	add	r0, r0, #272	@ 0x110
c044234c:	e3e07004 	mvn	r7, #4
c0442350:	eb0854ae 	bl	0xc0657610
c0442354:	e59d3010 	ldr	r3, [sp, #16]
c0442358:	e1a00007 	mov	r0, r7
c044235c:	e59d2024 	ldr	r2, [sp, #36]	@ 0x24
c0442360:	e5933000 	ldr	r3, [r3]
c0442364:	e1520003 	cmp	r2, r3
c0442368:	0a000084 	beq	0xc0442580
c044236c:	ebf35b8e 	bl	0xc01191ac
c0442370:	e3530001 	cmp	r3, #1
c0442374:	1a00000c 	bne	0xc04423ac
c0442378:	e1a00006 	mov	r0, r6
c044237c:	eb085395 	bl	0xc06571d8
c0442380:	e1a01000 	mov	r1, r0
c0442384:	e1a00006 	mov	r0, r6
c0442388:	ebfffe2a 	bl	0xc0441c38
c044238c:	e3500006 	cmp	r0, #6
c0442390:	e1a07000 	mov	r7, r0
c0442394:	9a00003a 	bls	0xc0442484
c0442398:	e59f31ec 	ldr	r3, [pc, #492]	@ 0xc044258c
c044239c:	e3a02064 	mov	r2, #100	@ 0x64
c04423a0:	e59f11f8 	ldr	r1, [pc, #504]	@ 0xc04425a0
c04423a4:	e5930000 	ldr	r0, [r3]
c04423a8:	eaffffe6 	b	0xc0442348
c04423ac:	e3530002 	cmp	r3, #2
c04423b0:	1a00000c 	bne	0xc04423e8
c04423b4:	e1a00006 	mov	r0, r6
c04423b8:	eb085386 	bl	0xc06571d8
c04423bc:	e1a01000 	mov	r1, r0
c04423c0:	e1a00006 	mov	r0, r6
c04423c4:	ebfffe1b 	bl	0xc0441c38
c04423c8:	e2503000 	subs	r3, r0, #0
c04423cc:	e58d3004 	str	r3, [sp, #4]
c04423d0:	aa00002d 	bge	0xc044248c
c04423d4:	e59f31b0 	ldr	r3, [pc, #432]	@ 0xc044258c
c04423d8:	e3a02064 	mov	r2, #100	@ 0x64
c04423dc:	e59f11c0 	ldr	r1, [pc, #448]	@ 0xc04425a4
c04423e0:	e5930000 	ldr	r0, [r3]
c04423e4:	eaffffd7 	b	0xc0442348
c04423e8:	e3530003 	cmp	r3, #3
c04423ec:	1a00000c 	bne	0xc0442424
c04423f0:	e1a00006 	mov	r0, r6
c04423f4:	eb085377 	bl	0xc06571d8
c04423f8:	e1a01000 	mov	r1, r0
c04423fc:	e1a00006 	mov	r0, r6
c0442400:	ebfffe0c 	bl	0xc0441c38
c0442404:	e2503000 	subs	r3, r0, #0
c0442408:	e58d3008 	str	r3, [sp, #8]
c044240c:	aa000020 	bge	0xc0442494
c0442410:	e59f3174 	ldr	r3, [pc, #372]	@ 0xc044258c
c0442414:	e3a02064 	mov	r2, #100	@ 0x64
c0442418:	e59f1188 	ldr	r1, [pc, #392]	@ 0xc04425a8
c044241c:	e5930000 	ldr	r0, [r3]
c0442420:	eaffffc8 	b	0xc0442348
c0442424:	e1a00006 	mov	r0, r6
c0442428:	e58d3014 	str	r3, [sp, #20]
c044242c:	eb085369 	bl	0xc06571d8
c0442430:	e1a01000 	mov	r1, r0
c0442434:	e1a00006 	mov	r0, r6
c0442438:	ebfffdfe 	bl	0xc0441c38
c044243c:	e3500000 	cmp	r0, #0
c0442440:	ba000008 	blt	0xc0442468
c0442444:	e59f2144 	ldr	r2, [pc, #324]	@ 0xc0442590
c0442448:	e59d3014 	ldr	r3, [sp, #20]
c044244c:	e5922000 	ldr	r2, [r2]
c0442450:	e2833001 	add	r3, r3, #1
c0442454:	e7c20005 	strb	r0, [r2, r5]
c0442458:	e2855001 	add	r5, r5, #1
c044245c:	e2881001 	add	r1, r8, #1
c0442460:	e2888001 	add	r8, r8, #1
c0442464:	eaffff5a 	b	0xc04421d4
c0442468:	e59f311c 	ldr	r3, [pc, #284]	@ 0xc044258c
c044246c:	e3a02064 	mov	r2, #100	@ 0x64
c0442470:	e59f1134 	ldr	r1, [pc, #308]	@ 0xc04425ac
c0442474:	e5930000 	ldr	r0, [r3]
c0442478:	eaffffb2 	b	0xc0442348
c044247c:	e3a03001 	mov	r3, #1
c0442480:	eafffff5 	b	0xc044245c
c0442484:	e3a03002 	mov	r3, #2
c0442488:	eafffff3 	b	0xc044245c
c044248c:	e3a03003 	mov	r3, #3
c0442490:	eafffff1 	b	0xc044245c
c0442494:	e3a03004 	mov	r3, #4
c0442498:	eaffffef 	b	0xc044245c
c044249c:	e2244001 	eor	r4, r4, #1
c04424a0:	e2044001 	and	r4, r4, #1
c04424a4:	e1120004 	tst	r2, r4
c04424a8:	0a00000b 	beq	0xc04424dc
c04424ac:	e5993000 	ldr	r3, [r9]
c04424b0:	e2830f5e 	add	r0, r3, #376	@ 0x178
c04424b4:	e5931010 	ldr	r1, [r3, #16]
c04424b8:	e5932188 	ldr	r2, [r3, #392]	@ 0x188
c04424bc:	e1d000b0 	ldrh	r0, [r0]
c04424c0:	e591401c 	ldr	r4, [r1, #28]
c04424c4:	e5913014 	ldr	r3, [r1, #20]
c04424c8:	e6ff2072 	uxth	r2, r2
c04424cc:	e59f10bc 	ldr	r1, [pc, #188]	@ 0xc0442590
c04424d0:	e5911000 	ldr	r1, [r1]
c04424d4:	e12fff34 	blx	r4
c04424d8:	eaffff72 	b	0xc04422a8
c04424dc:	e2577006 	subs	r7, r7, #6
c04424e0:	13a07001 	movne	r7, #1
c04424e4:	e1130007 	tst	r3, r7
c04424e8:	0a000008 	beq	0xc0442510
c04424ec:	e5990000 	ldr	r0, [r9]
c04424f0:	e59f209c 	ldr	r2, [pc, #156]	@ 0xc0442594
c04424f4:	e2801f5e 	add	r1, r0, #376	@ 0x178
c04424f8:	e5903188 	ldr	r3, [r0, #392]	@ 0x188
c04424fc:	e5922000 	ldr	r2, [r2]
c0442500:	e1d110b0 	ldrh	r1, [r1]
c0442504:	e590018c 	ldr	r0, [r0, #396]	@ 0x18c
c0442508:	ebffef62 	bl	0xc043e298
c044250c:	eaffff65 	b	0xc04422a8
c0442510:	e0147007 	ands	r7, r4, r7
c0442514:	0affff64 	beq	0xc04422ac
c0442518:	e5990000 	ldr	r0, [r9]
c044251c:	e59f206c 	ldr	r2, [pc, #108]	@ 0xc0442590
c0442520:	e2801f5e 	add	r1, r0, #376	@ 0x178
c0442524:	e5903188 	ldr	r3, [r0, #392]	@ 0x188
c0442528:	e5922000 	ldr	r2, [r2]
c044252c:	e1d110b0 	ldrh	r1, [r1]
c0442530:	e590018c 	ldr	r0, [r0, #396]	@ 0x18c
c0442534:	ebffefb3 	bl	0xc043e408
c0442538:	eaffff5a 	b	0xc04422a8
c044253c:	e5963000 	ldr	r3, [r6]
c0442540:	e3a02001 	mov	r2, #1
c0442544:	e1a07008 	mov	r7, r8
c0442548:	e583210c 	str	r2, [r3, #268]	@ 0x10c
c044254c:	eaffff80 	b	0xc0442354
c0442550:	e2473003 	sub	r3, r7, #3
c0442554:	e3530001 	cmp	r3, #1
c0442558:	8affff3a 	bhi	0xc0442248
c044255c:	e3550000 	cmp	r5, #0
c0442560:	e2053001 	and	r3, r5, #1
c0442564:	b2633000 	rsblt	r3, r3, #0
c0442568:	e3530001 	cmp	r3, #1
c044256c:	1affff35 	bne	0xc0442248
c0442570:	e5960000 	ldr	r0, [r6]
c0442574:	e3a02064 	mov	r2, #100	@ 0x64
c0442578:	e59f1030 	ldr	r1, [pc, #48]	@ 0xc04425b0
c044257c:	eaffff71 	b	0xc0442348
c0442580:	e28dd02c 	add	sp, sp, #44	@ 0x2c
c0442584:	e8bd8ff0 	pop	{r4, r5, r6, r7, r8, r9, sl, fp, pc}
c0442588:	c0a04e08 	adcgt	r4, r0, r8, lsl #28
c044258c:	c0a5d4d0 	ldrdgt	sp, [r5], r0	@ <UNPREDICTABLE>
c0442590:	c0a5d4cc 	adcgt	sp, r5, ip, asr #9
c0442594:	c0a5d4c8 	adcgt	sp, r5, r8, asr #9
c0442598:	c0802bcf 	addgt	r2, r0, pc, asr #23
c044259c:	c0802b66 	addgt	r2, r0, r6, ror #22
c04425a0:	c0802bdd 	ldrdgt	r2, [r0], sp
c04425a4:	c0802bf4 	strdgt	r2, [r0], r4
c04425a8:	c0802c07 	addgt	r2, r0, r7, lsl #24
c04425ac:	c0802b94 	umullgt	r2, r0, r4, fp
c04425b0:	c0802c1a 	addgt	r2, r0, sl, lsl ip
c04425b4:	e92d4ff0 	push	{r4, r5, r6, r7, r8, r9, sl, fp, lr}
c04425b8:	e1a08002 	mov	r8, r2
c04425bc:	e59f221c 	ldr	r2, [pc, #540]	@ 0xc04427e0
c04425c0:	e24dd024 	sub	sp, sp, #36	@ 0x24
c04425c4:	e59f5218 	ldr	r5, [pc, #536]	@ 0xc04427e4
c04425c8:	e3a04000 	mov	r4, #0
c04425cc:	e58d3008 	str	r3, [sp, #8]
c04425d0:	e1a07004 	mov	r7, r4
c04425d4:	e5923000 	ldr	r3, [r2]
c04425d8:	e1a0a004 	mov	sl, r4
c04425dc:	e59fb204 	ldr	fp, [pc, #516]	@ 0xc04427e8
c04425e0:	e1a06004 	mov	r6, r4
c04425e4:	e1a01004 	mov	r1, r4
c04425e8:	e1a09004 	mov	r9, r4
c04425ec:	e58d301c 	str	r3, [sp, #28]
c04425f0:	e5953000 	ldr	r3, [r5]
c04425f4:	e58d4004 	str	r4, [sp, #4]
c04425f8:	e58d200c 	str	r2, [sp, #12]
c04425fc:	e583410c 	str	r4, [r3, #268]	@ 0x10c
c0442600:	e59d3008 	ldr	r3, [sp, #8]
c0442604:	e1560003 	cmp	r6, r3
c0442608:	1a000030 	bne	0xc04426d0
c044260c:	e0462001 	sub	r2, r6, r1
c0442610:	e28d0012 	add	r0, sp, #18
c0442614:	e0881001 	add	r1, r8, r1
c0442618:	e3a03000 	mov	r3, #0
c044261c:	e58d3012 	str	r3, [sp, #18]
c0442620:	e58d3016 	str	r3, [sp, #22]
c0442624:	e1cd31ba 	strh	r3, [sp, #26]
c0442628:	eb0853f8 	bl	0xc0657610
c044262c:	e28d0012 	add	r0, sp, #18
c0442630:	eb0852e8 	bl	0xc06571d8
c0442634:	e1a01000 	mov	r1, r0
c0442638:	e28d0012 	add	r0, sp, #18
c044263c:	ebfffd7d 	bl	0xc0441c38
c0442640:	e3500000 	cmp	r0, #0
c0442644:	a59f319c 	ldrge	r3, [pc, #412]	@ 0xc04427e8
c0442648:	a5933000 	ldrge	r3, [r3]
c044264c:	a7c30004 	strbge	r0, [r3, r4]
c0442650:	a2844001 	addge	r4, r4, #1
c0442654:	e3570001 	cmp	r7, #1
c0442658:	e5950000 	ldr	r0, [r5]
c044265c:	059f3184 	ldreq	r3, [pc, #388]	@ 0xc04427e8
c0442660:	e2800070 	add	r0, r0, #112	@ 0x70
c0442664:	05933000 	ldreq	r3, [r3]
c0442668:	05d32000 	ldrbeq	r2, [r3]
c044266c:	05d34001 	ldrbeq	r4, [r3, #1]
c0442670:	e59d3004 	ldr	r3, [sp, #4]
c0442674:	00844402 	addeq	r4, r4, r2, lsl #8
c0442678:	e5807104 	str	r7, [r0, #260]	@ 0x104
c044267c:	e5804118 	str	r4, [r0, #280]	@ 0x118
c0442680:	e580311c 	str	r3, [r0, #284]	@ 0x11c
c0442684:	eb087f06 	bl	0xc06622a4
c0442688:	e5953000 	ldr	r3, [r5]
c044268c:	e59f1158 	ldr	r1, [pc, #344]	@ 0xc04427ec
c0442690:	e5932188 	ldr	r2, [r3, #392]	@ 0x188
c0442694:	e5911000 	ldr	r1, [r1]
c0442698:	e593018c 	ldr	r0, [r3, #396]	@ 0x18c
c044269c:	ebfff098 	bl	0xc043e904
c04426a0:	e1a04000 	mov	r4, r0
c04426a4:	e5950000 	ldr	r0, [r5]
c04426a8:	e2800070 	add	r0, r0, #112	@ 0x70
c04426ac:	eb087d65 	bl	0xc0661c48
c04426b0:	e3540000 	cmp	r4, #0
c04426b4:	aa000042 	bge	0xc04427c4
c04426b8:	e5950000 	ldr	r0, [r5]
c04426bc:	e3a02064 	mov	r2, #100	@ 0x64
c04426c0:	e59f1128 	ldr	r1, [pc, #296]	@ 0xc04427f0
c04426c4:	e2800e11 	add	r0, r0, #272	@ 0x110
c04426c8:	eb0853d0 	bl	0xc0657610
c04426cc:	ea00001a 	b	0xc044273c
c04426d0:	e7d82006 	ldrb	r2, [r8, r6]
c04426d4:	e3520020 	cmp	r2, #32
c04426d8:	1a000027 	bne	0xc044277c
c04426dc:	e0462001 	sub	r2, r6, r1
c04426e0:	e28d0012 	add	r0, sp, #18
c04426e4:	e2822001 	add	r2, r2, #1
c04426e8:	e0881001 	add	r1, r8, r1
c04426ec:	e58d9012 	str	r9, [sp, #18]
c04426f0:	e58d9016 	str	r9, [sp, #22]
c04426f4:	e1cd91ba 	strh	r9, [sp, #26]
c04426f8:	eb0853c4 	bl	0xc0657610
c04426fc:	e35a0000 	cmp	sl, #0
c0442700:	e28d0012 	add	r0, sp, #18
c0442704:	1a000013 	bne	0xc0442758
c0442708:	eb0852b2 	bl	0xc06571d8
c044270c:	e1a01000 	mov	r1, r0
c0442710:	e28d0012 	add	r0, sp, #18
c0442714:	ebfffd47 	bl	0xc0441c38
c0442718:	e3500001 	cmp	r0, #1
c044271c:	e1a07000 	mov	r7, r0
c0442720:	9a000025 	bls	0xc04427bc
c0442724:	e5950000 	ldr	r0, [r5]
c0442728:	e3a02064 	mov	r2, #100	@ 0x64
c044272c:	e59f10c0 	ldr	r1, [pc, #192]	@ 0xc04427f4
c0442730:	e2800e11 	add	r0, r0, #272	@ 0x110
c0442734:	e3e04004 	mvn	r4, #4
c0442738:	eb0853b4 	bl	0xc0657610
c044273c:	e59d300c 	ldr	r3, [sp, #12]
c0442740:	e1a00004 	mov	r0, r4
c0442744:	e59d201c 	ldr	r2, [sp, #28]
c0442748:	e5933000 	ldr	r3, [r3]
c044274c:	e1520003 	cmp	r2, r3
c0442750:	0a000020 	beq	0xc04427d8
c0442754:	ebf35a94 	bl	0xc01191ac
c0442758:	e35a0001 	cmp	sl, #1
c044275c:	1a000008 	bne	0xc0442784
c0442760:	eb08529c 	bl	0xc06571d8
c0442764:	e3a0a002 	mov	sl, #2
c0442768:	e1a01000 	mov	r1, r0
c044276c:	e28d0012 	add	r0, sp, #18
c0442770:	ebfffd30 	bl	0xc0441c38
c0442774:	e58d0004 	str	r0, [sp, #4]
c0442778:	e2861001 	add	r1, r6, #1
c044277c:	e2866001 	add	r6, r6, #1
c0442780:	eaffff9e 	b	0xc0442600
c0442784:	eb085293 	bl	0xc06571d8
c0442788:	e1a01000 	mov	r1, r0
c044278c:	e28d0012 	add	r0, sp, #18
c0442790:	ebfffd28 	bl	0xc0441c38
c0442794:	e3500000 	cmp	r0, #0
c0442798:	a59b2000 	ldrge	r2, [fp]
c044279c:	a28aa001 	addge	sl, sl, #1
c04427a0:	a7c20004 	strbge	r0, [r2, r4]
c04427a4:	a2844001 	addge	r4, r4, #1
c04427a8:	aafffff2 	bge	0xc0442778
c04427ac:	e5950000 	ldr	r0, [r5]
c04427b0:	e3a02064 	mov	r2, #100	@ 0x64
c04427b4:	e59f103c 	ldr	r1, [pc, #60]	@ 0xc04427f8
c04427b8:	eaffffdc 	b	0xc0442730
c04427bc:	e3a0a001 	mov	sl, #1
c04427c0:	eaffffec 	b	0xc0442778
c04427c4:	e5953000 	ldr	r3, [r5]
c04427c8:	e3a02001 	mov	r2, #1
c04427cc:	e1a04006 	mov	r4, r6
c04427d0:	e583210c 	str	r2, [r3, #268]	@ 0x10c
c04427d4:	eaffffd8 	b	0xc044273c
c04427d8:	e28dd024 	add	sp, sp, #36	@ 0x24
c04427dc:	e8bd8ff0 	pop	{r4, r5, r6, r7, r8, r9, sl, fp, pc}
c04427e0:	c0a04e08 	adcgt	r4, r0, r8, lsl #28
c04427e4:	c0a5d4d0 	ldrdgt	sp, [r5], r0	@ <UNPREDICTABLE>
c04427e8:	c0a5d4cc 	adcgt	sp, r5, ip, asr #9
c04427ec:	c0a5d4c8 	adcgt	sp, r5, r8, asr #9
c04427f0:	c0802bcf 	addgt	r2, r0, pc, asr #23
c04427f4:	c0802b66 	addgt	r2, r0, r6, ror #22
c04427f8:	c0802b94 	umullgt	r2, r0, r4, fp
c04427fc:	e92d4ff0 	push	{r4, r5, r6, r7, r8, r9, sl, fp, lr}
c0442800:	e1a08002 	mov	r8, r2
c0442804:	e59f2278 	ldr	r2, [pc, #632]	@ 0xc0442a84
c0442808:	e24dd024 	sub	sp, sp, #36	@ 0x24
c044280c:	e59f5274 	ldr	r5, [pc, #628]	@ 0xc0442a88
c0442810:	e3a04000 	mov	r4, #0
c0442814:	e58d3008 	str	r3, [sp, #8]
c0442818:	e1a07004 	mov	r7, r4
c044281c:	e5923000 	ldr	r3, [r2]
c0442820:	e1a0a004 	mov	sl, r4
c0442824:	e59fb260 	ldr	fp, [pc, #608]	@ 0xc0442a8c
c0442828:	e1a06004 	mov	r6, r4
c044282c:	e1a01004 	mov	r1, r4
c0442830:	e1a09004 	mov	r9, r4
c0442834:	e58d301c 	str	r3, [sp, #28]
c0442838:	e5953000 	ldr	r3, [r5]
c044283c:	e58d4004 	str	r4, [sp, #4]
c0442840:	e58d200c 	str	r2, [sp, #12]
c0442844:	e583410c 	str	r4, [r3, #268]	@ 0x10c
c0442848:	e59d3008 	ldr	r3, [sp, #8]
c044284c:	e1560003 	cmp	r6, r3
c0442850:	1a000032 	bne	0xc0442920
c0442854:	e0462001 	sub	r2, r6, r1
c0442858:	e28d0012 	add	r0, sp, #18
c044285c:	e0881001 	add	r1, r8, r1
c0442860:	e3a03000 	mov	r3, #0
c0442864:	e58d3012 	str	r3, [sp, #18]
c0442868:	e58d3016 	str	r3, [sp, #22]
c044286c:	e1cd31ba 	strh	r3, [sp, #26]
c0442870:	eb085366 	bl	0xc0657610
c0442874:	e28d0012 	add	r0, sp, #18
c0442878:	eb085256 	bl	0xc06571d8
c044287c:	e1a01000 	mov	r1, r0
c0442880:	e28d0012 	add	r0, sp, #18
c0442884:	ebfffceb 	bl	0xc0441c38
c0442888:	e3500000 	cmp	r0, #0
c044288c:	a59f31f8 	ldrge	r3, [pc, #504]	@ 0xc0442a8c
c0442890:	a5933000 	ldrge	r3, [r3]
c0442894:	a7c30004 	strbge	r0, [r3, r4]
c0442898:	a2844001 	addge	r4, r4, #1
c044289c:	e3570001 	cmp	r7, #1
c04428a0:	1a00006c 	bne	0xc0442a58
c04428a4:	e59f31e0 	ldr	r3, [pc, #480]	@ 0xc0442a8c
c04428a8:	e5933000 	ldr	r3, [r3]
c04428ac:	e5d34000 	ldrb	r4, [r3]
c04428b0:	e5950000 	ldr	r0, [r5]
c04428b4:	e1dd20b4 	ldrh	r2, [sp, #4]
c04428b8:	e2803f5e 	add	r3, r0, #376	@ 0x178
c04428bc:	e2800070 	add	r0, r0, #112	@ 0x70
c04428c0:	e1c320b0 	strh	r2, [r3]
c04428c4:	e5807104 	str	r7, [r0, #260]	@ 0x104
c04428c8:	e5804118 	str	r4, [r0, #280]	@ 0x118
c04428cc:	eb087e74 	bl	0xc06622a4
c04428d0:	e5953000 	ldr	r3, [r5]
c04428d4:	e3570001 	cmp	r7, #1
c04428d8:	e5932188 	ldr	r2, [r3, #392]	@ 0x188
c04428dc:	1a000053 	bne	0xc0442a30
c04428e0:	e59f11a8 	ldr	r1, [pc, #424]	@ 0xc0442a90
c04428e4:	e5d30178 	ldrb	r0, [r3, #376]	@ 0x178
c04428e8:	e5911000 	ldr	r1, [r1]
c04428ec:	ebfff323 	bl	0xc043f580
c04428f0:	e1a04000 	mov	r4, r0
c04428f4:	e5950000 	ldr	r0, [r5]
c04428f8:	e2800070 	add	r0, r0, #112	@ 0x70
c04428fc:	eb087cd1 	bl	0xc0661c48
c0442900:	e3540000 	cmp	r4, #0
c0442904:	aa00004e 	bge	0xc0442a44
c0442908:	e5950000 	ldr	r0, [r5]
c044290c:	e3a02064 	mov	r2, #100	@ 0x64
c0442910:	e59f117c 	ldr	r1, [pc, #380]	@ 0xc0442a94
c0442914:	e2800e11 	add	r0, r0, #272	@ 0x110
c0442918:	eb08533c 	bl	0xc0657610
c044291c:	ea00001a 	b	0xc044298c
c0442920:	e7d82006 	ldrb	r2, [r8, r6]
c0442924:	e3520020 	cmp	r2, #32
c0442928:	1a000036 	bne	0xc0442a08
c044292c:	e0462001 	sub	r2, r6, r1
c0442930:	e28d0012 	add	r0, sp, #18
c0442934:	e2822001 	add	r2, r2, #1
c0442938:	e0881001 	add	r1, r8, r1
c044293c:	e58d9012 	str	r9, [sp, #18]
c0442940:	e58d9016 	str	r9, [sp, #22]
c0442944:	e1cd91ba 	strh	r9, [sp, #26]
c0442948:	eb085330 	bl	0xc0657610
c044294c:	e35a0000 	cmp	sl, #0
c0442950:	e28d0012 	add	r0, sp, #18
c0442954:	1a000013 	bne	0xc04429a8
c0442958:	eb08521e 	bl	0xc06571d8
c044295c:	e1a01000 	mov	r1, r0
c0442960:	e28d0012 	add	r0, sp, #18
c0442964:	ebfffcb3 	bl	0xc0441c38
c0442968:	e3500001 	cmp	r0, #1
c044296c:	e1a07000 	mov	r7, r0
c0442970:	9a00002a 	bls	0xc0442a20
c0442974:	e5950000 	ldr	r0, [r5]
c0442978:	e3a02064 	mov	r2, #100	@ 0x64
c044297c:	e59f1114 	ldr	r1, [pc, #276]	@ 0xc0442a98
c0442980:	e2800e11 	add	r0, r0, #272	@ 0x110
c0442984:	e3e04004 	mvn	r4, #4
c0442988:	eb085320 	bl	0xc0657610
c044298c:	e59d300c 	ldr	r3, [sp, #12]
c0442990:	e1a00004 	mov	r0, r4
c0442994:	e59d201c 	ldr	r2, [sp, #28]
c0442998:	e5933000 	ldr	r3, [r3]
c044299c:	e1520003 	cmp	r2, r3
c04429a0:	0a000035 	beq	0xc0442a7c
c04429a4:	ebf35a00 	bl	0xc01191ac
c04429a8:	e35a0001 	cmp	sl, #1
c04429ac:	1a00000a 	bne	0xc04429dc
c04429b0:	eb085208 	bl	0xc06571d8
c04429b4:	e1a01000 	mov	r1, r0
c04429b8:	e28d0012 	add	r0, sp, #18
c04429bc:	ebfffc9d 	bl	0xc0441c38
c04429c0:	e2503000 	subs	r3, r0, #0
c04429c4:	e58d3004 	str	r3, [sp, #4]
c04429c8:	aa000016 	bge	0xc0442a28
c04429cc:	e5950000 	ldr	r0, [r5]
c04429d0:	e3a02064 	mov	r2, #100	@ 0x64
c04429d4:	e59f10c0 	ldr	r1, [pc, #192]	@ 0xc0442a9c
c04429d8:	eaffffe8 	b	0xc0442980
c04429dc:	eb0851fd 	bl	0xc06571d8
c04429e0:	e1a01000 	mov	r1, r0
c04429e4:	e28d0012 	add	r0, sp, #18
c04429e8:	ebfffc92 	bl	0xc0441c38
c04429ec:	e3500000 	cmp	r0, #0
c04429f0:	ba000006 	blt	0xc0442a10
c04429f4:	e59b2000 	ldr	r2, [fp]
c04429f8:	e28aa001 	add	sl, sl, #1
c04429fc:	e7c20004 	strb	r0, [r2, r4]
c0442a00:	e2844001 	add	r4, r4, #1
c0442a04:	e2861001 	add	r1, r6, #1
c0442a08:	e2866001 	add	r6, r6, #1
c0442a0c:	eaffff8d 	b	0xc0442848
c0442a10:	e5950000 	ldr	r0, [r5]
c0442a14:	e3a02064 	mov	r2, #100	@ 0x64
c0442a18:	e59f1080 	ldr	r1, [pc, #128]	@ 0xc0442aa0
c0442a1c:	eaffffd7 	b	0xc0442980
c0442a20:	e3a0a001 	mov	sl, #1
c0442a24:	eafffff6 	b	0xc0442a04
c0442a28:	e3a0a002 	mov	sl, #2
c0442a2c:	eafffff4 	b	0xc0442a04
c0442a30:	e59f1054 	ldr	r1, [pc, #84]	@ 0xc0442a8c
c0442a34:	e5d30178 	ldrb	r0, [r3, #376]	@ 0x178
c0442a38:	e5911000 	ldr	r1, [r1]
c0442a3c:	ebfff23a 	bl	0xc043f32c
c0442a40:	eaffffaa 	b	0xc04428f0
c0442a44:	e5953000 	ldr	r3, [r5]
c0442a48:	e3a02001 	mov	r2, #1
c0442a4c:	e1a04006 	mov	r4, r6
c0442a50:	e583210c 	str	r2, [r3, #268]	@ 0x10c
c0442a54:	eaffffcc 	b	0xc044298c
c0442a58:	e3540000 	cmp	r4, #0
c0442a5c:	e2043001 	and	r3, r4, #1
c0442a60:	b2633000 	rsblt	r3, r3, #0
c0442a64:	e3530001 	cmp	r3, #1
c0442a68:	1affff90 	bne	0xc04428b0
c0442a6c:	e5950000 	ldr	r0, [r5]
c0442a70:	e3a02064 	mov	r2, #100	@ 0x64
c0442a74:	e59f1028 	ldr	r1, [pc, #40]	@ 0xc0442aa4
c0442a78:	eaffffc0 	b	0xc0442980
c0442a7c:	e28dd024 	add	sp, sp, #36	@ 0x24
c0442a80:	e8bd8ff0 	pop	{r4, r5, r6, r7, r8, r9, sl, fp, pc}
c0442a84:	c0a04e08 	adcgt	r4, r0, r8, lsl #28
c0442a88:	c0a5d4d0 	ldrdgt	sp, [r5], r0	@ <UNPREDICTABLE>
c0442a8c:	c0a5d4cc 	adcgt	sp, r5, ip, asr #9
c0442a90:	c0a5d4c8 	adcgt	sp, r5, r8, asr #9
c0442a94:	c0802bcf 	addgt	r2, r0, pc, asr #23
c0442a98:	c0802b66 	addgt	r2, r0, r6, ror #22
c0442a9c:	c0802b83 	addgt	r2, r0, r3, lsl #23
c0442aa0:	c0802b94 	umullgt	r2, r0, r4, fp
c0442aa4:	c0802ba5 	addgt	r2, r0, r5, lsr #23
c0442aa8:	e92d47f0 	push	{r4, r5, r6, r7, r8, r9, sl, lr}
c0442aac:	e2524000 	subs	r4, r2, #0
c0442ab0:	0a000062 	beq	0xc0442c40
c0442ab4:	e3015008 	movw	r5, #4104	@ 0x1008
c0442ab8:	e59f72d0 	ldr	r7, [pc, #720]	@ 0xc0442d90
c0442abc:	e1540005 	cmp	r4, r5
c0442ac0:	e1a09001 	mov	r9, r1
c0442ac4:	31a05004 	movcc	r5, r4
c0442ac8:	e5970000 	ldr	r0, [r7]
c0442acc:	e1a02005 	mov	r2, r5
c0442ad0:	e1a08007 	mov	r8, r7
c0442ad4:	ebfff7e1 	bl	0xc0440a60
c0442ad8:	e2504000 	subs	r4, r0, #0
c0442adc:	13e0400d 	mvnne	r4, #13
c0442ae0:	1a000056 	bne	0xc0442c40
c0442ae4:	e59f62a8 	ldr	r6, [pc, #680]	@ 0xc0442d94
c0442ae8:	e5960000 	ldr	r0, [r6]
c0442aec:	e2800070 	add	r0, r0, #112	@ 0x70
c0442af0:	eb087deb 	bl	0xc06622a4
c0442af4:	e5963000 	ldr	r3, [r6]
c0442af8:	e5d321c4 	ldrb	r2, [r3, #452]	@ 0x1c4
c0442afc:	e3520000 	cmp	r2, #0
c0442b00:	0a000085 	beq	0xc0442d1c
c0442b04:	e352000b 	cmp	r2, #11
c0442b08:	0a000018 	beq	0xc0442b70
c0442b0c:	e352000c 	cmp	r2, #12
c0442b10:	0a00004c 	beq	0xc0442c48
c0442b14:	e3520009 	cmp	r2, #9
c0442b18:	1a00003c 	bne	0xc0442c10
c0442b1c:	e5d341c3 	ldrb	r4, [r3, #451]	@ 0x1c3
c0442b20:	e1540005 	cmp	r4, r5
c0442b24:	02830f5e 	addeq	r0, r3, #376	@ 0x178
c0442b28:	05971000 	ldreq	r1, [r7]
c0442b2c:	01a02001 	moveq	r2, r1
c0442b30:	0a000073 	beq	0xc0442d04
c0442b34:	e59f425c 	ldr	r4, [pc, #604]	@ 0xc0442d98
c0442b38:	e1a02005 	mov	r2, r5
c0442b3c:	e5971000 	ldr	r1, [r7]
c0442b40:	e5940000 	ldr	r0, [r4]
c0442b44:	e2800001 	add	r0, r0, #1
c0442b48:	eb081664 	bl	0xc06484e0
c0442b4c:	e5963000 	ldr	r3, [r6]
c0442b50:	e6ff1075 	uxth	r1, r5
c0442b54:	e5940000 	ldr	r0, [r4]
c0442b58:	e5933010 	ldr	r3, [r3, #16]
c0442b5c:	e593702c 	ldr	r7, [r3, #44]	@ 0x2c
c0442b60:	e5932014 	ldr	r2, [r3, #20]
c0442b64:	e12fff37 	blx	r7
c0442b68:	e1a04000 	mov	r4, r0
c0442b6c:	ea000027 	b	0xc0442c10
c0442b70:	e5933010 	ldr	r3, [r3, #16]
c0442b74:	e5d33001 	ldrb	r3, [r3, #1]
c0442b78:	e3530000 	cmp	r3, #0
c0442b7c:	0a000004 	beq	0xc0442b94
c0442b80:	eb000b34 	bl	0xc0445858
c0442b84:	e1a02005 	mov	r2, r5
c0442b88:	e1a01009 	mov	r1, r9
c0442b8c:	e5970000 	ldr	r0, [r7]
c0442b90:	ebfff7b2 	bl	0xc0440a60
c0442b94:	e5983000 	ldr	r3, [r8]
c0442b98:	e5d34001 	ldrb	r4, [r3, #1]
c0442b9c:	e5d37005 	ldrb	r7, [r3, #5]
c0442ba0:	e5d31000 	ldrb	r1, [r3]
c0442ba4:	e5d32004 	ldrb	r2, [r3, #4]
c0442ba8:	e1a04804 	lsl	r4, r4, #16
c0442bac:	e1a07807 	lsl	r7, r7, #16
c0442bb0:	e1844c01 	orr	r4, r4, r1, lsl #24
c0442bb4:	e5d31003 	ldrb	r1, [r3, #3]
c0442bb8:	e1877c02 	orr	r7, r7, r2, lsl #24
c0442bbc:	e5d32007 	ldrb	r2, [r3, #7]
c0442bc0:	e1844001 	orr	r4, r4, r1
c0442bc4:	e5d31002 	ldrb	r1, [r3, #2]
c0442bc8:	e1877002 	orr	r7, r7, r2
c0442bcc:	e5d32006 	ldrb	r2, [r3, #6]
c0442bd0:	e1844401 	orr	r4, r4, r1, lsl #8
c0442bd4:	e1877402 	orr	r7, r7, r2, lsl #8
c0442bd8:	eb00096f 	bl	0xc044519c
c0442bdc:	e0849007 	add	r9, r4, r7
c0442be0:	e1590000 	cmp	r9, r0
c0442be4:	c3e04000 	mvngt	r4, #0
c0442be8:	ca000005 	bgt	0xc0442c04
c0442bec:	e5980000 	ldr	r0, [r8]
c0442bf0:	e1a01004 	mov	r1, r4
c0442bf4:	e1a02007 	mov	r2, r7
c0442bf8:	e1a04005 	mov	r4, r5
c0442bfc:	e2800008 	add	r0, r0, #8
c0442c00:	eb000967 	bl	0xc04451a4
c0442c04:	e5963000 	ldr	r3, [r6]
c0442c08:	e3a02000 	mov	r2, #0
c0442c0c:	e5c321c4 	strb	r2, [r3, #452]	@ 0x1c4
c0442c10:	e5960000 	ldr	r0, [r6]
c0442c14:	e2800070 	add	r0, r0, #112	@ 0x70
c0442c18:	eb087c0a 	bl	0xc0661c48
c0442c1c:	e5963000 	ldr	r3, [r6]
c0442c20:	e5d321c5 	ldrb	r2, [r3, #453]	@ 0x1c5
c0442c24:	e3520001 	cmp	r2, #1
c0442c28:	03a02002 	moveq	r2, #2
c0442c2c:	0a000002 	beq	0xc0442c3c
c0442c30:	e3520002 	cmp	r2, #2
c0442c34:	1a000001 	bne	0xc0442c40
c0442c38:	e3a02000 	mov	r2, #0
c0442c3c:	e5c321c5 	strb	r2, [r3, #453]	@ 0x1c5
c0442c40:	e1a00004 	mov	r0, r4
c0442c44:	e8bd87f0 	pop	{r4, r5, r6, r7, r8, r9, sl, pc}
c0442c48:	e5972000 	ldr	r2, [r7]
c0442c4c:	e5933010 	ldr	r3, [r3, #16]
c0442c50:	e5d27001 	ldrb	r7, [r2, #1]
c0442c54:	e5d21000 	ldrb	r1, [r2]
c0442c58:	e5d24005 	ldrb	r4, [r2, #5]
c0442c5c:	e1a07807 	lsl	r7, r7, #16
c0442c60:	e5d33001 	ldrb	r3, [r3, #1]
c0442c64:	e1877c01 	orr	r7, r7, r1, lsl #24
c0442c68:	e5d21003 	ldrb	r1, [r2, #3]
c0442c6c:	e1a04804 	lsl	r4, r4, #16
c0442c70:	e3530000 	cmp	r3, #0
c0442c74:	e1877001 	orr	r7, r7, r1
c0442c78:	e5d21002 	ldrb	r1, [r2, #2]
c0442c7c:	e1877401 	orr	r7, r7, r1, lsl #8
c0442c80:	e5d21004 	ldrb	r1, [r2, #4]
c0442c84:	e1844c01 	orr	r4, r4, r1, lsl #24
c0442c88:	e5d21007 	ldrb	r1, [r2, #7]
c0442c8c:	e5d22006 	ldrb	r2, [r2, #6]
c0442c90:	e1844001 	orr	r4, r4, r1
c0442c94:	e1844402 	orr	r4, r4, r2, lsl #8
c0442c98:	0a000000 	beq	0xc0442ca0
c0442c9c:	eb000aed 	bl	0xc0445858
c0442ca0:	eb00093d 	bl	0xc044519c
c0442ca4:	e0878004 	add	r8, r7, r4
c0442ca8:	e1580000 	cmp	r8, r0
c0442cac:	c3e04000 	mvngt	r4, #0
c0442cb0:	ca00000e 	bgt	0xc0442cf0
c0442cb4:	e3a01d37 	mov	r1, #3520	@ 0xdc0
c0442cb8:	e1a00004 	mov	r0, r4
c0442cbc:	ebf61ade 	bl	0xc01c983c
c0442cc0:	e1a02004 	mov	r2, r4
c0442cc4:	e1a01007 	mov	r1, r7
c0442cc8:	e1a08000 	mov	r8, r0
c0442ccc:	eb00093a 	bl	0xc04451bc
c0442cd0:	e59f30c0 	ldr	r3, [pc, #192]	@ 0xc0442d98
c0442cd4:	e1a02004 	mov	r2, r4
c0442cd8:	e1a01008 	mov	r1, r8
c0442cdc:	e1a04005 	mov	r4, r5
c0442ce0:	e5930000 	ldr	r0, [r3]
c0442ce4:	eb0815fd 	bl	0xc06484e0
c0442ce8:	e1a00008 	mov	r0, r8
c0442cec:	ebf617d9 	bl	0xc01c8c58
c0442cf0:	e5963000 	ldr	r3, [r6]
c0442cf4:	e3a0200f 	mov	r2, #15
c0442cf8:	eaffffc3 	b	0xc0442c0c
c0442cfc:	e4d2c001 	ldrb	ip, [r2], #1
c0442d00:	e0c0c0b2 	strh	ip, [r0], #2
c0442d04:	e042c001 	sub	ip, r2, r1
c0442d08:	e15c0005 	cmp	ip, r5
c0442d0c:	3afffffa 	bcc	0xc0442cfc
c0442d10:	e3a02001 	mov	r2, #1
c0442d14:	e5c321c2 	strb	r2, [r3, #450]	@ 0x1c2
c0442d18:	eaffffbc 	b	0xc0442c10
c0442d1c:	e5932010 	ldr	r2, [r3, #16]
c0442d20:	e5d21000 	ldrb	r1, [r2]
c0442d24:	e351001c 	cmp	r1, #28
c0442d28:	1a000011 	bne	0xc0442d74
c0442d2c:	e5d341c3 	ldrb	r4, [r3, #451]	@ 0x1c3
c0442d30:	e1540005 	cmp	r4, r5
c0442d34:	02830f5e 	addeq	r0, r3, #376	@ 0x178
c0442d38:	05971000 	ldreq	r1, [r7]
c0442d3c:	01a02001 	moveq	r2, r1
c0442d40:	0a000007 	beq	0xc0442d64
c0442d44:	e5923024 	ldr	r3, [r2, #36]	@ 0x24
c0442d48:	e6ff1075 	uxth	r1, r5
c0442d4c:	e5922014 	ldr	r2, [r2, #20]
c0442d50:	e5980000 	ldr	r0, [r8]
c0442d54:	e12fff33 	blx	r3
c0442d58:	eaffff82 	b	0xc0442b68
c0442d5c:	e4d2c001 	ldrb	ip, [r2], #1
c0442d60:	e0c0c0b2 	strh	ip, [r0], #2
c0442d64:	e042c001 	sub	ip, r2, r1
c0442d68:	e15c0005 	cmp	ip, r5
c0442d6c:	3afffffa 	bcc	0xc0442d5c
c0442d70:	eaffffe6 	b	0xc0442d10
c0442d74:	e3510018 	cmp	r1, #24
c0442d78:	1afffff1 	bne	0xc0442d44
c0442d7c:	e5d311c3 	ldrb	r1, [r3, #451]	@ 0x1c3
c0442d80:	e1510005 	cmp	r1, r5
c0442d84:	03a01001 	moveq	r1, #1
c0442d88:	05c311c2 	strbeq	r1, [r3, #450]	@ 0x1c2
c0442d8c:	eaffffec 	b	0xc0442d44
c0442d90:	c0a5d4cc 	adcgt	sp, r5, ip, asr #9
c0442d94:	c0a5d4d0 	ldrdgt	sp, [r5], r0	@ <UNPREDICTABLE>
c0442d98:	c0a5d4c8 	adcgt	sp, r5, r8, asr #9
c0442d9c:	e92d4ff0 	push	{r4, r5, r6, r7, r8, r9, sl, fp, lr}
c0442da0:	e24dd02c 	sub	sp, sp, #44	@ 0x2c
c0442da4:	e59f93f8 	ldr	r9, [pc, #1016]	@ 0xc04431a4
c0442da8:	e28da01a 	add	sl, sp, #26
c0442dac:	e58d200c 	str	r2, [sp, #12]
c0442db0:	e3a05000 	mov	r5, #0
c0442db4:	e59f23ec 	ldr	r2, [pc, #1004]	@ 0xc04431a8
c0442db8:	e1a0b001 	mov	fp, r1
c0442dbc:	e1a07005 	mov	r7, r5
c0442dc0:	e1a04005 	mov	r4, r5
c0442dc4:	e1a08005 	mov	r8, r5
c0442dc8:	e1a01005 	mov	r1, r5
c0442dcc:	e5923000 	ldr	r3, [r2]
c0442dd0:	e1a0600a 	mov	r6, sl
c0442dd4:	e58d5008 	str	r5, [sp, #8]
c0442dd8:	e58d5004 	str	r5, [sp, #4]
c0442ddc:	e58d3024 	str	r3, [sp, #36]	@ 0x24
c0442de0:	e5993000 	ldr	r3, [r9]
c0442de4:	e58d2010 	str	r2, [sp, #16]
c0442de8:	e583510c 	str	r5, [r3, #268]	@ 0x10c
c0442dec:	e1a03005 	mov	r3, r5
c0442df0:	e59d200c 	ldr	r2, [sp, #12]
c0442df4:	e1580002 	cmp	r8, r2
c0442df8:	1a00003d 	bne	0xc0442ef4
c0442dfc:	e0482001 	sub	r2, r8, r1
c0442e00:	e1a0000a 	mov	r0, sl
c0442e04:	e08b1001 	add	r1, fp, r1
c0442e08:	e3a03000 	mov	r3, #0
c0442e0c:	e58d301a 	str	r3, [sp, #26]
c0442e10:	e58a3004 	str	r3, [sl, #4]
c0442e14:	e1ca30b8 	strh	r3, [sl, #8]
c0442e18:	eb0851fc 	bl	0xc0657610
c0442e1c:	e1a0000a 	mov	r0, sl
c0442e20:	e59f637c 	ldr	r6, [pc, #892]	@ 0xc04431a4
c0442e24:	eb0850eb 	bl	0xc06571d8
c0442e28:	e1a01000 	mov	r1, r0
c0442e2c:	e1a0000a 	mov	r0, sl
c0442e30:	ebfffb80 	bl	0xc0441c38
c0442e34:	e3500000 	cmp	r0, #0
c0442e38:	a59f336c 	ldrge	r3, [pc, #876]	@ 0xc04431ac
c0442e3c:	a5933000 	ldrge	r3, [r3]
c0442e40:	a7c30005 	strbge	r0, [r3, r5]
c0442e44:	a2855001 	addge	r5, r5, #1
c0442e48:	e3540001 	cmp	r4, #1
c0442e4c:	1a0000c6 	bne	0xc044316c
c0442e50:	e59f3354 	ldr	r3, [pc, #852]	@ 0xc04431ac
c0442e54:	e5933000 	ldr	r3, [r3]
c0442e58:	e5d32000 	ldrb	r2, [r3]
c0442e5c:	e5d35001 	ldrb	r5, [r3, #1]
c0442e60:	e0855402 	add	r5, r5, r2, lsl #8
c0442e64:	e5990000 	ldr	r0, [r9]
c0442e68:	e99d0006 	ldmib	sp, {r1, r2}
c0442e6c:	e2803f5e 	add	r3, r0, #376	@ 0x178
c0442e70:	e2800070 	add	r0, r0, #112	@ 0x70
c0442e74:	e0822401 	add	r2, r2, r1, lsl #8
c0442e78:	e1c320b0 	strh	r2, [r3]
c0442e7c:	e5804104 	str	r4, [r0, #260]	@ 0x104
c0442e80:	e5805118 	str	r5, [r0, #280]	@ 0x118
c0442e84:	e580711c 	str	r7, [r0, #284]	@ 0x11c
c0442e88:	eb087d05 	bl	0xc06622a4
c0442e8c:	e2472006 	sub	r2, r7, #6
c0442e90:	e16f2f12 	clz	r2, r2
c0442e94:	e2043001 	and	r3, r4, #1
c0442e98:	e1a022a2 	lsr	r2, r2, #5
c0442e9c:	e1130002 	tst	r3, r2
c0442ea0:	0a000084 	beq	0xc04430b8
c0442ea4:	e5990000 	ldr	r0, [r9]
c0442ea8:	e59f2300 	ldr	r2, [pc, #768]	@ 0xc04431b0
c0442eac:	e2801f5e 	add	r1, r0, #376	@ 0x178
c0442eb0:	e2803f62 	add	r3, r0, #392	@ 0x188
c0442eb4:	e5922000 	ldr	r2, [r2]
c0442eb8:	e1d330b0 	ldrh	r3, [r3]
c0442ebc:	e1d110b0 	ldrh	r1, [r1]
c0442ec0:	ebfff6ce 	bl	0xc0440a00
c0442ec4:	e1a07000 	mov	r7, r0
c0442ec8:	e5960000 	ldr	r0, [r6]
c0442ecc:	e2800070 	add	r0, r0, #112	@ 0x70
c0442ed0:	eb087b5c 	bl	0xc0661c48
c0442ed4:	e3570000 	cmp	r7, #0
c0442ed8:	aa00009e 	bge	0xc0443158
c0442edc:	e5960000 	ldr	r0, [r6]
c0442ee0:	e3a02064 	mov	r2, #100	@ 0x64
c0442ee4:	e59f12c8 	ldr	r1, [pc, #712]	@ 0xc04431b4
c0442ee8:	e2800e11 	add	r0, r0, #272	@ 0x110
c0442eec:	eb0851c7 	bl	0xc0657610
c0442ef0:	ea00001e 	b	0xc0442f70
c0442ef4:	e7db2008 	ldrb	r2, [fp, r8]
c0442ef8:	e3520020 	cmp	r2, #32
c0442efc:	1a00005e 	bne	0xc044307c
c0442f00:	e0482001 	sub	r2, r8, r1
c0442f04:	e58d3014 	str	r3, [sp, #20]
c0442f08:	e2822001 	add	r2, r2, #1
c0442f0c:	e3a03000 	mov	r3, #0
c0442f10:	e08b1001 	add	r1, fp, r1
c0442f14:	e5863000 	str	r3, [r6]
c0442f18:	e5863004 	str	r3, [r6, #4]
c0442f1c:	e1a00006 	mov	r0, r6
c0442f20:	e1c630b8 	strh	r3, [r6, #8]
c0442f24:	eb0851b9 	bl	0xc0657610
c0442f28:	e59d3014 	ldr	r3, [sp, #20]
c0442f2c:	e3530000 	cmp	r3, #0
c0442f30:	1a000015 	bne	0xc0442f8c
c0442f34:	e1a00006 	mov	r0, r6
c0442f38:	eb0850a6 	bl	0xc06571d8
c0442f3c:	e1a01000 	mov	r1, r0
c0442f40:	e1a00006 	mov	r0, r6
c0442f44:	ebfffb3b 	bl	0xc0441c38
c0442f48:	e3500001 	cmp	r0, #1
c0442f4c:	e1a04000 	mov	r4, r0
c0442f50:	9a000050 	bls	0xc0443098
c0442f54:	e59f3248 	ldr	r3, [pc, #584]	@ 0xc04431a4
c0442f58:	e3a02064 	mov	r2, #100	@ 0x64
c0442f5c:	e59f1254 	ldr	r1, [pc, #596]	@ 0xc04431b8
c0442f60:	e5930000 	ldr	r0, [r3]
c0442f64:	e2800e11 	add	r0, r0, #272	@ 0x110
c0442f68:	e3e07004 	mvn	r7, #4
c0442f6c:	eb0851a7 	bl	0xc0657610
c0442f70:	e59d3010 	ldr	r3, [sp, #16]
c0442f74:	e1a00007 	mov	r0, r7
c0442f78:	e59d2024 	ldr	r2, [sp, #36]	@ 0x24
c0442f7c:	e5933000 	ldr	r3, [r3]
c0442f80:	e1520003 	cmp	r2, r3
c0442f84:	0a000084 	beq	0xc044319c
c0442f88:	ebf35887 	bl	0xc01191ac
c0442f8c:	e3530001 	cmp	r3, #1
c0442f90:	1a00000c 	bne	0xc0442fc8
c0442f94:	e1a00006 	mov	r0, r6
c0442f98:	eb08508e 	bl	0xc06571d8
c0442f9c:	e1a01000 	mov	r1, r0
c0442fa0:	e1a00006 	mov	r0, r6
c0442fa4:	ebfffb23 	bl	0xc0441c38
c0442fa8:	e3500006 	cmp	r0, #6
c0442fac:	e1a07000 	mov	r7, r0
c0442fb0:	9a00003a 	bls	0xc04430a0
c0442fb4:	e59f31e8 	ldr	r3, [pc, #488]	@ 0xc04431a4
c0442fb8:	e3a02064 	mov	r2, #100	@ 0x64
c0442fbc:	e59f11f8 	ldr	r1, [pc, #504]	@ 0xc04431bc
c0442fc0:	e5930000 	ldr	r0, [r3]
c0442fc4:	eaffffe6 	b	0xc0442f64
c0442fc8:	e3530002 	cmp	r3, #2
c0442fcc:	1a00000c 	bne	0xc0443004
c0442fd0:	e1a00006 	mov	r0, r6
c0442fd4:	eb08507f 	bl	0xc06571d8
c0442fd8:	e1a01000 	mov	r1, r0
c0442fdc:	e1a00006 	mov	r0, r6
c0442fe0:	ebfffb14 	bl	0xc0441c38
c0442fe4:	e2503000 	subs	r3, r0, #0
c0442fe8:	e58d3004 	str	r3, [sp, #4]
c0442fec:	aa00002d 	bge	0xc04430a8
c0442ff0:	e59f31ac 	ldr	r3, [pc, #428]	@ 0xc04431a4
c0442ff4:	e3a02064 	mov	r2, #100	@ 0x64
c0442ff8:	e59f11c0 	ldr	r1, [pc, #448]	@ 0xc04431c0
c0442ffc:	e5930000 	ldr	r0, [r3]
c0443000:	eaffffd7 	b	0xc0442f64
c0443004:	e3530003 	cmp	r3, #3
c0443008:	1a00000c 	bne	0xc0443040
c044300c:	e1a00006 	mov	r0, r6
c0443010:	eb085070 	bl	0xc06571d8
c0443014:	e1a01000 	mov	r1, r0
c0443018:	e1a00006 	mov	r0, r6
c044301c:	ebfffb05 	bl	0xc0441c38
c0443020:	e2503000 	subs	r3, r0, #0
c0443024:	e58d3008 	str	r3, [sp, #8]
c0443028:	aa000020 	bge	0xc04430b0
c044302c:	e59f3170 	ldr	r3, [pc, #368]	@ 0xc04431a4
c0443030:	e3a02064 	mov	r2, #100	@ 0x64
c0443034:	e59f1188 	ldr	r1, [pc, #392]	@ 0xc04431c4
c0443038:	e5930000 	ldr	r0, [r3]
c044303c:	eaffffc8 	b	0xc0442f64
c0443040:	e1a00006 	mov	r0, r6
c0443044:	e58d3014 	str	r3, [sp, #20]
c0443048:	eb085062 	bl	0xc06571d8
c044304c:	e1a01000 	mov	r1, r0
c0443050:	e1a00006 	mov	r0, r6
c0443054:	ebfffaf7 	bl	0xc0441c38
c0443058:	e3500000 	cmp	r0, #0
c044305c:	ba000008 	blt	0xc0443084
c0443060:	e59f2144 	ldr	r2, [pc, #324]	@ 0xc04431ac
c0443064:	e59d3014 	ldr	r3, [sp, #20]
c0443068:	e5922000 	ldr	r2, [r2]
c044306c:	e2833001 	add	r3, r3, #1
c0443070:	e7c20005 	strb	r0, [r2, r5]
c0443074:	e2855001 	add	r5, r5, #1
c0443078:	e2881001 	add	r1, r8, #1
c044307c:	e2888001 	add	r8, r8, #1
c0443080:	eaffff5a 	b	0xc0442df0
c0443084:	e59f3118 	ldr	r3, [pc, #280]	@ 0xc04431a4
c0443088:	e3a02064 	mov	r2, #100	@ 0x64
c044308c:	e59f1134 	ldr	r1, [pc, #308]	@ 0xc04431c8
c0443090:	e5930000 	ldr	r0, [r3]
c0443094:	eaffffb2 	b	0xc0442f64
c0443098:	e3a03001 	mov	r3, #1
c044309c:	eafffff5 	b	0xc0443078
c04430a0:	e3a03002 	mov	r3, #2
c04430a4:	eafffff3 	b	0xc0443078
c04430a8:	e3a03003 	mov	r3, #3
c04430ac:	eafffff1 	b	0xc0443078
c04430b0:	e3a03004 	mov	r3, #4
c04430b4:	eaffffef 	b	0xc0443078
c04430b8:	e2244001 	eor	r4, r4, #1
c04430bc:	e2044001 	and	r4, r4, #1
c04430c0:	e1120004 	tst	r2, r4
c04430c4:	0a00000b 	beq	0xc04430f8
c04430c8:	e5993000 	ldr	r3, [r9]
c04430cc:	e2830f5e 	add	r0, r3, #376	@ 0x178
c04430d0:	e5931010 	ldr	r1, [r3, #16]
c04430d4:	e5932188 	ldr	r2, [r3, #392]	@ 0x188
c04430d8:	e1d000b0 	ldrh	r0, [r0]
c04430dc:	e591401c 	ldr	r4, [r1, #28]
c04430e0:	e5913014 	ldr	r3, [r1, #20]
c04430e4:	e6ff2072 	uxth	r2, r2
c04430e8:	e59f10bc 	ldr	r1, [pc, #188]	@ 0xc04431ac
c04430ec:	e5911000 	ldr	r1, [r1]
c04430f0:	e12fff34 	blx	r4
c04430f4:	eaffff72 	b	0xc0442ec4
c04430f8:	e2577006 	subs	r7, r7, #6
c04430fc:	13a07001 	movne	r7, #1
c0443100:	e1130007 	tst	r3, r7
c0443104:	0a000008 	beq	0xc044312c
c0443108:	e5990000 	ldr	r0, [r9]
c044310c:	e59f209c 	ldr	r2, [pc, #156]	@ 0xc04431b0
c0443110:	e2801f5e 	add	r1, r0, #376	@ 0x178
c0443114:	e5903188 	ldr	r3, [r0, #392]	@ 0x188
c0443118:	e5922000 	ldr	r2, [r2]
c044311c:	e1d110b0 	ldrh	r1, [r1]
c0443120:	e590018c 	ldr	r0, [r0, #396]	@ 0x18c
c0443124:	ebffec5b 	bl	0xc043e298
c0443128:	eaffff65 	b	0xc0442ec4
c044312c:	e0147007 	ands	r7, r4, r7
c0443130:	0affff64 	beq	0xc0442ec8
c0443134:	e5990000 	ldr	r0, [r9]
c0443138:	e59f206c 	ldr	r2, [pc, #108]	@ 0xc04431ac
c044313c:	e2801f5e 	add	r1, r0, #376	@ 0x178
c0443140:	e5903188 	ldr	r3, [r0, #392]	@ 0x188
c0443144:	e5922000 	ldr	r2, [r2]
c0443148:	e1d110b0 	ldrh	r1, [r1]
c044314c:	e590018c 	ldr	r0, [r0, #396]	@ 0x18c
c0443150:	ebffecac 	bl	0xc043e408
c0443154:	eaffff5a 	b	0xc0442ec4
c0443158:	e5963000 	ldr	r3, [r6]
c044315c:	e3a02001 	mov	r2, #1
c0443160:	e1a07008 	mov	r7, r8
c0443164:	e583210c 	str	r2, [r3, #268]	@ 0x10c
c0443168:	eaffff80 	b	0xc0442f70
c044316c:	e2473003 	sub	r3, r7, #3
c0443170:	e3530001 	cmp	r3, #1
c0443174:	8affff3a 	bhi	0xc0442e64
c0443178:	e3550000 	cmp	r5, #0
c044317c:	e2053001 	and	r3, r5, #1
c0443180:	b2633000 	rsblt	r3, r3, #0
c0443184:	e3530001 	cmp	r3, #1
c0443188:	1affff35 	bne	0xc0442e64
c044318c:	e5960000 	ldr	r0, [r6]
c0443190:	e3a02064 	mov	r2, #100	@ 0x64
c0443194:	e59f1030 	ldr	r1, [pc, #48]	@ 0xc04431cc
c0443198:	eaffff71 	b	0xc0442f64
c044319c:	e28dd02c 	add	sp, sp, #44	@ 0x2c
c04431a0:	e8bd8ff0 	pop	{r4, r5, r6, r7, r8, r9, sl, fp, pc}
c04431a4:	c0a5d4d0 	ldrdgt	sp, [r5], r0	@ <UNPREDICTABLE>
c04431a8:	c0a04e08 	adcgt	r4, r0, r8, lsl #28
c04431ac:	c0a5d4cc 	adcgt	sp, r5, ip, asr #9
c04431b0:	c0a5d4c8 	adcgt	sp, r5, r8, asr #9
c04431b4:	c0802bcf 	addgt	r2, r0, pc, asr #23
c04431b8:	c0802b66 	addgt	r2, r0, r6, ror #22
c04431bc:	c0802bdd 	ldrdgt	r2, [r0], sp
c04431c0:	c0802bf4 	strdgt	r2, [r0], r4
c04431c4:	c0802c07 	addgt	r2, r0, r7, lsl #24
c04431c8:	c0802b94 	umullgt	r2, r0, r4, fp
c04431cc:	c0802c1a 	addgt	r2, r0, sl, lsl ip
c04431d0:	e92d4070 	push	{r4, r5, r6, lr}
c04431d4:	e1a05001 	mov	r5, r1
c04431d8:	e1a06000 	mov	r6, r0
c04431dc:	eb084ffd 	bl	0xc06571d8
c04431e0:	e1a01006 	mov	r1, r6
c04431e4:	e1a04000 	mov	r4, r0
c04431e8:	e2444001 	sub	r4, r4, #1
c04431ec:	e1a02000 	mov	r2, r0
c04431f0:	e1a00005 	mov	r0, r5
c04431f4:	eb085105 	bl	0xc0657610
c04431f8:	e7d63004 	ldrb	r3, [r6, r4]
c04431fc:	e3a00000 	mov	r0, #0
c0443200:	e353000a 	cmp	r3, #10
c0443204:	03a03000 	moveq	r3, #0
c0443208:	07c53004 	strbeq	r3, [r5, r4]
c044320c:	e8bd8070 	pop	{r4, r5, r6, pc}
c0443210:	e92d41f0 	push	{r4, r5, r6, r7, r8, lr}
c0443214:	e1a07003 	mov	r7, r3
c0443218:	e59f5180 	ldr	r5, [pc, #384]	@ 0xc04433a0
c044321c:	e24dd028 	sub	sp, sp, #40	@ 0x28
c0443220:	e1a00002 	mov	r0, r2
c0443224:	e1a04002 	mov	r4, r2
c0443228:	e5953000 	ldr	r3, [r5]
c044322c:	e58d3024 	str	r3, [sp, #36]	@ 0x24
c0443230:	e3a03000 	mov	r3, #0
c0443234:	e58d3008 	str	r3, [sp, #8]
c0443238:	eb084fe6 	bl	0xc06571d8
c044323c:	e35000c8 	cmp	r0, #200	@ 0xc8
c0443240:	83e04015 	mvnhi	r4, #21
c0443244:	8a000042 	bhi	0xc0443354
c0443248:	e59f3154 	ldr	r3, [pc, #340]	@ 0xc04433a4
c044324c:	e3a01d37 	mov	r1, #3520	@ 0xdc0
c0443250:	e5930020 	ldr	r0, [r3, #32]
c0443254:	ebf619dd 	bl	0xc01c99d0
c0443258:	e2506000 	subs	r6, r0, #0
c044325c:	03e0400b 	mvneq	r4, #11
c0443260:	0a00003b 	beq	0xc0443354
c0443264:	e1a01006 	mov	r1, r6
c0443268:	e1a00004 	mov	r0, r4
c044326c:	ebffffd7 	bl	0xc04431d0
c0443270:	e59f8130 	ldr	r8, [pc, #304]	@ 0xc04433a8
c0443274:	e1a01006 	mov	r1, r6
c0443278:	e5983000 	ldr	r3, [r8]
c044327c:	e5932004 	ldr	r2, [r3, #4]
c0443280:	e2822010 	add	r2, r2, #16
c0443284:	e28d0008 	add	r0, sp, #8
c0443288:	ebfde897 	bl	0xc03bd4ec
c044328c:	e3500000 	cmp	r0, #0
c0443290:	13e04001 	mvnne	r4, #1
c0443294:	1a00002c 	bne	0xc044334c
c0443298:	e59d0008 	ldr	r0, [sp, #8]
c044329c:	e5903000 	ldr	r3, [r0]
c04432a0:	e3530a01 	cmp	r3, #4096	@ 0x1000
c04432a4:	9a000030 	bls	0xc044336c
c04432a8:	e28d301c 	add	r3, sp, #28
c04432ac:	e28d2010 	add	r2, sp, #16
c04432b0:	e58d3004 	str	r3, [sp, #4]
c04432b4:	e28d100c 	add	r1, sp, #12
c04432b8:	e28d3018 	add	r3, sp, #24
c04432bc:	e58d3000 	str	r3, [sp]
c04432c0:	e28d3014 	add	r3, sp, #20
c04432c4:	e5900004 	ldr	r0, [r0, #4]
c04432c8:	eb000742 	bl	0xc0444fd8
c04432cc:	e2504000 	subs	r4, r0, #0
c04432d0:	1a000025 	bne	0xc044336c
c04432d4:	e59d3008 	ldr	r3, [sp, #8]
c04432d8:	e59d100c 	ldr	r1, [sp, #12]
c04432dc:	e59d2010 	ldr	r2, [sp, #16]
c04432e0:	e5930004 	ldr	r0, [r3, #4]
c04432e4:	e0800001 	add	r0, r0, r1
c04432e8:	eb0007ad 	bl	0xc04451a4
c04432ec:	e59d2008 	ldr	r2, [sp, #8]
c04432f0:	e59d3018 	ldr	r3, [sp, #24]
c04432f4:	e5921000 	ldr	r1, [r2]
c04432f8:	e1510003 	cmp	r1, r3
c04432fc:	9a00000b 	bls	0xc0443330
c0443300:	e5920004 	ldr	r0, [r2, #4]
c0443304:	e28d1020 	add	r1, sp, #32
c0443308:	e0800003 	add	r0, r0, r3
c044330c:	eb0006e3 	bl	0xc0444ea0
c0443310:	e2504000 	subs	r4, r0, #0
c0443314:	1a000005 	bne	0xc0443330
c0443318:	e59d3008 	ldr	r3, [sp, #8]
c044331c:	e59d1018 	ldr	r1, [sp, #24]
c0443320:	e59d2020 	ldr	r2, [sp, #32]
c0443324:	e5930004 	ldr	r0, [r3, #4]
c0443328:	e0800001 	add	r0, r0, r1
c044332c:	eb00079c 	bl	0xc04451a4
c0443330:	e5983000 	ldr	r3, [r8]
c0443334:	e3a02001 	mov	r2, #1
c0443338:	e59d0008 	ldr	r0, [sp, #8]
c044333c:	e5c322df 	strb	r2, [r3, #735]	@ 0x2df
c0443340:	ebfde612 	bl	0xc03bcb90
c0443344:	e3540000 	cmp	r4, #0
c0443348:	01a04007 	moveq	r4, r7
c044334c:	e1a00006 	mov	r0, r6
c0443350:	ebf61640 	bl	0xc01c8c58
c0443354:	e59d2024 	ldr	r2, [sp, #36]	@ 0x24
c0443358:	e1a00004 	mov	r0, r4
c044335c:	e5953000 	ldr	r3, [r5]
c0443360:	e1520003 	cmp	r2, r3
c0443364:	0a00000b 	beq	0xc0443398
c0443368:	ebf3578f 	bl	0xc01191ac
c044336c:	e59d3008 	ldr	r3, [sp, #8]
c0443370:	e28d1020 	add	r1, sp, #32
c0443374:	e5930004 	ldr	r0, [r3, #4]
c0443378:	eb0006c8 	bl	0xc0444ea0
c044337c:	e2504000 	subs	r4, r0, #0
c0443380:	1affffea 	bne	0xc0443330
c0443384:	e59d3008 	ldr	r3, [sp, #8]
c0443388:	e3a01801 	mov	r1, #65536	@ 0x10000
c044338c:	e59d2020 	ldr	r2, [sp, #32]
c0443390:	e5930004 	ldr	r0, [r3, #4]
c0443394:	eaffffe4 	b	0xc044332c
c0443398:	e28dd028 	add	sp, sp, #40	@ 0x28
c044339c:	e8bd81f0 	pop	{r4, r5, r6, r7, r8, pc}
c04433a0:	c0a04e08 	adcgt	r4, r0, r8, lsl #28
c04433a4:	c08272d0 	ldrdgt	r7, [r2], r0
c04433a8:	c0a5d4d0 	ldrdgt	sp, [r5], r0	@ <UNPREDICTABLE>
c04433ac:	e3500000 	cmp	r0, #0
c04433b0:	012fff1e 	bxeq	lr
c04433b4:	e92d4010 	push	{r4, lr}
c04433b8:	e2524001 	subs	r4, r2, #1
c04433bc:	e1a03001 	mov	r3, r1
c04433c0:	5a00000d 	bpl	0xc04433fc
c04433c4:	e59f2048 	ldr	r2, [pc, #72]	@ 0xc0443414
c04433c8:	e5d23000 	ldrb	r3, [r2]
c04433cc:	e3530000 	cmp	r3, #0
c04433d0:	1a000005 	bne	0xc04433ec
c04433d4:	e3a01001 	mov	r1, #1
c04433d8:	e59f0038 	ldr	r0, [pc, #56]	@ 0xc0443418
c04433dc:	e5c21000 	strb	r1, [r2]
c04433e0:	e3a02009 	mov	r2, #9
c04433e4:	e3a01096 	mov	r1, #150	@ 0x96
c04433e8:	ebf357f7 	bl	0xc01193cc
c04433ec:	e3540000 	cmp	r4, #0
c04433f0:	a1a00004 	movge	r0, r4
c04433f4:	b3e00004 	mvnlt	r0, #4
c04433f8:	e8bd8010 	pop	{r4, pc}
c04433fc:	e1a02004 	mov	r2, r4
c0443400:	e1a01000 	mov	r1, r0
c0443404:	e1a00003 	mov	r0, r3
c0443408:	ebfff594 	bl	0xc0440a60
c044340c:	e1a04000 	mov	r4, r0
c0443410:	eafffff5 	b	0xc04433ec
c0443414:	c0a3e7dd 	ldrdgt	lr, [r3], sp	@ <UNPREDICTABLE>
c0443418:	c07ccde8 	rsbsgt	ip, ip, r8, ror #27
c044341c:	e92d4030 	push	{r4, r5, lr}
c0443420:	e24dd014 	sub	sp, sp, #20
c0443424:	e59f4080 	ldr	r4, [pc, #128]	@ 0xc04434ac
c0443428:	e1a00001 	mov	r0, r1
c044342c:	e28d1002 	add	r1, sp, #2
c0443430:	e1a05002 	mov	r5, r2
c0443434:	e5943000 	ldr	r3, [r4]
c0443438:	e58d300c 	str	r3, [sp, #12]
c044343c:	e3a03000 	mov	r3, #0
c0443440:	e58d3002 	str	r3, [sp, #2]
c0443444:	e58d3006 	str	r3, [sp, #6]
c0443448:	e1cd30ba 	strh	r3, [sp, #10]
c044344c:	ebffffd6 	bl	0xc04433ac
c0443450:	e3500000 	cmp	r0, #0
c0443454:	c3e05015 	mvngt	r5, #21
c0443458:	ca00000b 	bgt	0xc044348c
c044345c:	e59f104c 	ldr	r1, [pc, #76]	@ 0xc04434b0
c0443460:	e28d0002 	add	r0, sp, #2
c0443464:	eb084f1d 	bl	0xc06570e0
c0443468:	e3500000 	cmp	r0, #0
c044346c:	1a000000 	bne	0xc0443474
c0443470:	ebfff518 	bl	0xc04408d8
c0443474:	e59f1038 	ldr	r1, [pc, #56]	@ 0xc04434b4
c0443478:	e28d0002 	add	r0, sp, #2
c044347c:	eb084f17 	bl	0xc06570e0
c0443480:	e3500000 	cmp	r0, #0
c0443484:	1a000000 	bne	0xc044348c
c0443488:	ebfff50c 	bl	0xc04408c0
c044348c:	e59d200c 	ldr	r2, [sp, #12]
c0443490:	e1a00005 	mov	r0, r5
c0443494:	e5943000 	ldr	r3, [r4]
c0443498:	e1520003 	cmp	r2, r3
c044349c:	0a000000 	beq	0xc04434a4
c04434a0:	ebf35741 	bl	0xc01191ac
c04434a4:	e28dd014 	add	sp, sp, #20
c04434a8:	e8bd8030 	pop	{r4, r5, pc}
c04434ac:	c0a04e08 	adcgt	r4, r0, r8, lsl #28
c04434b0:	c07edaee 	rsbsgt	sp, lr, lr, ror #21
c04434b4:	c07e2705 	rsbsgt	r2, lr, r5, lsl #14
c04434b8:	e92d41f0 	push	{r4, r5, r6, r7, r8, lr}
c04434bc:	e3520064 	cmp	r2, #100	@ 0x64
c04434c0:	e59f5188 	ldr	r5, [pc, #392]	@ 0xc0443650
c04434c4:	e24dd028 	sub	sp, sp, #40	@ 0x28
c04434c8:	83e04015 	mvnhi	r4, #21
c04434cc:	e5953000 	ldr	r3, [r5]
c04434d0:	e58d3024 	str	r3, [sp, #36]	@ 0x24
c04434d4:	e3a03000 	mov	r3, #0
c04434d8:	e58d3008 	str	r3, [sp, #8]
c04434dc:	8a000048 	bhi	0xc0443604
c04434e0:	e59f316c 	ldr	r3, [pc, #364]	@ 0xc0443654
c04434e4:	e1a04001 	mov	r4, r1
c04434e8:	e3a01d37 	mov	r1, #3520	@ 0xdc0
c04434ec:	e1a07002 	mov	r7, r2
c04434f0:	e593001c 	ldr	r0, [r3, #28]
c04434f4:	ebf61935 	bl	0xc01c99d0
c04434f8:	e2506000 	subs	r6, r0, #0
c04434fc:	03e0400b 	mvneq	r4, #11
c0443500:	0a00003f 	beq	0xc0443604
c0443504:	e1a00004 	mov	r0, r4
c0443508:	e1a02007 	mov	r2, r7
c044350c:	e1a01006 	mov	r1, r6
c0443510:	ebffffa5 	bl	0xc04433ac
c0443514:	e3500000 	cmp	r0, #0
c0443518:	c3e04015 	mvngt	r4, #21
c044351c:	ca000036 	bgt	0xc04435fc
c0443520:	e59f8130 	ldr	r8, [pc, #304]	@ 0xc0443658
c0443524:	e1a01006 	mov	r1, r6
c0443528:	e28d0008 	add	r0, sp, #8
c044352c:	e5983000 	ldr	r3, [r8]
c0443530:	e5932004 	ldr	r2, [r3, #4]
c0443534:	e2822010 	add	r2, r2, #16
c0443538:	ebfde7eb 	bl	0xc03bd4ec
c044353c:	e3500000 	cmp	r0, #0
c0443540:	13e04001 	mvnne	r4, #1
c0443544:	1a00002c 	bne	0xc04435fc
c0443548:	e59d0008 	ldr	r0, [sp, #8]
c044354c:	e5903000 	ldr	r3, [r0]
c0443550:	e3530a01 	cmp	r3, #4096	@ 0x1000
c0443554:	9a000030 	bls	0xc044361c
c0443558:	e28d301c 	add	r3, sp, #28
c044355c:	e28d2010 	add	r2, sp, #16
c0443560:	e58d3004 	str	r3, [sp, #4]
c0443564:	e28d100c 	add	r1, sp, #12
c0443568:	e28d3018 	add	r3, sp, #24
c044356c:	e58d3000 	str	r3, [sp]
c0443570:	e28d3014 	add	r3, sp, #20
c0443574:	e5900004 	ldr	r0, [r0, #4]
c0443578:	eb000696 	bl	0xc0444fd8
c044357c:	e2504000 	subs	r4, r0, #0
c0443580:	1a000025 	bne	0xc044361c
c0443584:	e59d3008 	ldr	r3, [sp, #8]
c0443588:	e59d100c 	ldr	r1, [sp, #12]
c044358c:	e59d2010 	ldr	r2, [sp, #16]
c0443590:	e5930004 	ldr	r0, [r3, #4]
c0443594:	e0800001 	add	r0, r0, r1
c0443598:	eb000701 	bl	0xc04451a4
c044359c:	e59d2008 	ldr	r2, [sp, #8]
c04435a0:	e59d3018 	ldr	r3, [sp, #24]
c04435a4:	e5921000 	ldr	r1, [r2]
c04435a8:	e1510003 	cmp	r1, r3
c04435ac:	9a00000b 	bls	0xc04435e0
c04435b0:	e5920004 	ldr	r0, [r2, #4]
c04435b4:	e28d1020 	add	r1, sp, #32
c04435b8:	e0800003 	add	r0, r0, r3
c04435bc:	eb000637 	bl	0xc0444ea0
c04435c0:	e2504000 	subs	r4, r0, #0
c04435c4:	1a000005 	bne	0xc04435e0
c04435c8:	e59d3008 	ldr	r3, [sp, #8]
c04435cc:	e59d1018 	ldr	r1, [sp, #24]
c04435d0:	e59d2020 	ldr	r2, [sp, #32]
c04435d4:	e5930004 	ldr	r0, [r3, #4]
c04435d8:	e0800001 	add	r0, r0, r1
c04435dc:	eb0006f0 	bl	0xc04451a4
c04435e0:	e5983000 	ldr	r3, [r8]
c04435e4:	e3a02001 	mov	r2, #1
c04435e8:	e59d0008 	ldr	r0, [sp, #8]
c04435ec:	e5c322df 	strb	r2, [r3, #735]	@ 0x2df
c04435f0:	ebfde566 	bl	0xc03bcb90
c04435f4:	e3540000 	cmp	r4, #0
c04435f8:	01a04007 	moveq	r4, r7
c04435fc:	e1a00006 	mov	r0, r6
c0443600:	ebf61594 	bl	0xc01c8c58
c0443604:	e59d2024 	ldr	r2, [sp, #36]	@ 0x24
c0443608:	e1a00004 	mov	r0, r4
c044360c:	e5953000 	ldr	r3, [r5]
c0443610:	e1520003 	cmp	r2, r3
c0443614:	0a00000b 	beq	0xc0443648
c0443618:	ebf356e3 	bl	0xc01191ac
c044361c:	e59d3008 	ldr	r3, [sp, #8]
c0443620:	e28d1020 	add	r1, sp, #32
c0443624:	e5930004 	ldr	r0, [r3, #4]
c0443628:	eb00061c 	bl	0xc0444ea0
c044362c:	e2504000 	subs	r4, r0, #0
c0443630:	1affffea 	bne	0xc04435e0
c0443634:	e59d3008 	ldr	r3, [sp, #8]
c0443638:	e3a01801 	mov	r1, #65536	@ 0x10000
c044363c:	e59d2020 	ldr	r2, [sp, #32]
c0443640:	e5930004 	ldr	r0, [r3, #4]
c0443644:	eaffffe4 	b	0xc04435dc
c0443648:	e28dd028 	add	sp, sp, #40	@ 0x28
c044364c:	e8bd81f0 	pop	{r4, r5, r6, r7, r8, pc}
c0443650:	c0a04e08 	adcgt	r4, r0, r8, lsl #28
c0443654:	c08272d0 	ldrdgt	r7, [r2], r0
c0443658:	c0a5d4d0 	ldrdgt	sp, [r5], r0	@ <UNPREDICTABLE>
c044365c:	e92d40f0 	push	{r4, r5, r6, r7, lr}
c0443660:	e24dd014 	sub	sp, sp, #20
c0443664:	e59f50a8 	ldr	r5, [pc, #168]	@ 0xc0443714
c0443668:	e1a00001 	mov	r0, r1
c044366c:	e28d1002 	add	r1, sp, #2
c0443670:	e1a06002 	mov	r6, r2
c0443674:	e5953000 	ldr	r3, [r5]
c0443678:	e58d300c 	str	r3, [sp, #12]
c044367c:	e3a03000 	mov	r3, #0
c0443680:	e58d3002 	str	r3, [sp, #2]
c0443684:	e58d3006 	str	r3, [sp, #6]
c0443688:	e1cd30ba 	strh	r3, [sp, #10]
c044368c:	ebffff46 	bl	0xc04433ac
c0443690:	e3500000 	cmp	r0, #0
c0443694:	c3e00015 	mvngt	r0, #21
c0443698:	ca000016 	bgt	0xc04436f8
c044369c:	e59f1074 	ldr	r1, [pc, #116]	@ 0xc0443718
c04436a0:	e28d0002 	add	r0, sp, #2
c04436a4:	eb084e8d 	bl	0xc06570e0
c04436a8:	e59f406c 	ldr	r4, [pc, #108]	@ 0xc044371c
c04436ac:	e3500000 	cmp	r0, #0
c04436b0:	e5940000 	ldr	r0, [r4]
c04436b4:	05943000 	ldreq	r3, [r4]
c04436b8:	03a02001 	moveq	r2, #1
c04436bc:	e2800070 	add	r0, r0, #112	@ 0x70
c04436c0:	05c322de 	strbeq	r2, [r3, #734]	@ 0x2de
c04436c4:	eb087af6 	bl	0xc06622a4
c04436c8:	e5947000 	ldr	r7, [r4]
c04436cc:	eb000bdf 	bl	0xc0446650
c04436d0:	e5870094 	str	r0, [r7, #148]	@ 0x94
c04436d4:	e5940000 	ldr	r0, [r4]
c04436d8:	e2800070 	add	r0, r0, #112	@ 0x70
c04436dc:	eb087959 	bl	0xc0661c48
c04436e0:	e5943000 	ldr	r3, [r4]
c04436e4:	e3a02000 	mov	r2, #0
c04436e8:	e5930094 	ldr	r0, [r3, #148]	@ 0x94
c04436ec:	e5c322de 	strb	r2, [r3, #734]	@ 0x2de
c04436f0:	e1500002 	cmp	r0, r2
c04436f4:	a1a00006 	movge	r0, r6
c04436f8:	e59d200c 	ldr	r2, [sp, #12]
c04436fc:	e5953000 	ldr	r3, [r5]
c0443700:	e1520003 	cmp	r2, r3
c0443704:	0a000000 	beq	0xc044370c
c0443708:	ebf356a7 	bl	0xc01191ac
c044370c:	e28dd014 	add	sp, sp, #20
c0443710:	e8bd80f0 	pop	{r4, r5, r6, r7, pc}
c0443714:	c0a04e08 	adcgt	r4, r0, r8, lsl #28
c0443718:	c07ca440 	rsbsgt	sl, ip, r0, asr #8
c044371c:	c0a5d4d0 	ldrdgt	sp, [r5], r0	@ <UNPREDICTABLE>
c0443720:	e92d407f 	push	{r0, r1, r2, r3, r4, r5, r6, lr}
c0443724:	e1a00001 	mov	r0, r1
c0443728:	e59f10ec 	ldr	r1, [pc, #236]	@ 0xc044381c
c044372c:	e1a05002 	mov	r5, r2
c0443730:	e59f40e8 	ldr	r4, [pc, #232]	@ 0xc0443820
c0443734:	e5913000 	ldr	r3, [r1]
c0443738:	e1a06001 	mov	r6, r1
c044373c:	e58d300c 	str	r3, [sp, #12]
c0443740:	e3a03000 	mov	r3, #0
c0443744:	e58d3002 	str	r3, [sp, #2]
c0443748:	e58d3006 	str	r3, [sp, #6]
c044374c:	e1cd30ba 	strh	r3, [sp, #10]
c0443750:	e5943000 	ldr	r3, [r4]
c0443754:	e5d3308a 	ldrb	r3, [r3, #138]	@ 0x8a
c0443758:	e3530000 	cmp	r3, #0
c044375c:	0a000017 	beq	0xc04437c0
c0443760:	e28d1002 	add	r1, sp, #2
c0443764:	ebffff10 	bl	0xc04433ac
c0443768:	e3500000 	cmp	r0, #0
c044376c:	c3e05015 	mvngt	r5, #21
c0443770:	ca000012 	bgt	0xc04437c0
c0443774:	e5940000 	ldr	r0, [r4]
c0443778:	e2800070 	add	r0, r0, #112	@ 0x70
c044377c:	eb087ac8 	bl	0xc06622a4
c0443780:	e59f109c 	ldr	r1, [pc, #156]	@ 0xc0443824
c0443784:	e28d0002 	add	r0, sp, #2
c0443788:	eb084e54 	bl	0xc06570e0
c044378c:	e3500000 	cmp	r0, #0
c0443790:	03a01001 	moveq	r1, #1
c0443794:	0a000004 	beq	0xc04437ac
c0443798:	e59f1088 	ldr	r1, [pc, #136]	@ 0xc0443828
c044379c:	e28d0002 	add	r0, sp, #2
c04437a0:	eb084e4e 	bl	0xc06570e0
c04437a4:	e2501000 	subs	r1, r0, #0
c04437a8:	1a00000a 	bne	0xc04437d8
c04437ac:	e5940000 	ldr	r0, [r4]
c04437b0:	ebffe995 	bl	0xc043de0c
c04437b4:	e5940000 	ldr	r0, [r4]
c04437b8:	e2800070 	add	r0, r0, #112	@ 0x70
c04437bc:	eb087921 	bl	0xc0661c48
c04437c0:	e59d200c 	ldr	r2, [sp, #12]
c04437c4:	e1a00005 	mov	r0, r5
c04437c8:	e5963000 	ldr	r3, [r6]
c04437cc:	e1520003 	cmp	r2, r3
c04437d0:	0a00000f 	beq	0xc0443814
c04437d4:	ebf35674 	bl	0xc01191ac
c04437d8:	e59f104c 	ldr	r1, [pc, #76]	@ 0xc044382c
c04437dc:	e28d0002 	add	r0, sp, #2
c04437e0:	eb084e3e 	bl	0xc06570e0
c04437e4:	e3500000 	cmp	r0, #0
c04437e8:	1afffff1 	bne	0xc04437b4
c04437ec:	e5940000 	ldr	r0, [r4]
c04437f0:	e5d0308b 	ldrb	r3, [r0, #139]	@ 0x8b
c04437f4:	e3530000 	cmp	r3, #0
c04437f8:	0affffed 	beq	0xc04437b4
c04437fc:	e5d0306c 	ldrb	r3, [r0, #108]	@ 0x6c
c0443800:	e3530000 	cmp	r3, #0
c0443804:	0affffea 	beq	0xc04437b4
c0443808:	e3a01001 	mov	r1, #1
c044380c:	ebffef43 	bl	0xc043f520
c0443810:	eaffffe7 	b	0xc04437b4
c0443814:	e28dd010 	add	sp, sp, #16
c0443818:	e8bd8070 	pop	{r4, r5, r6, pc}
c044381c:	c0a04e08 	adcgt	r4, r0, r8, lsl #28
c0443820:	c0a5d4d0 	ldrdgt	sp, [r5], r0	@ <UNPREDICTABLE>
c0443824:	c07ca440 	rsbsgt	sl, ip, r0, asr #8
c0443828:	c07c97fa 	ldrshtgt	r9, [ip], #-122	@ 0xffffff86
c044382c:	c07db014 	rsbsgt	fp, sp, r4, lsl r0
c0443830:	e92d40f0 	push	{r4, r5, r6, r7, lr}
c0443834:	e24dd014 	sub	sp, sp, #20
c0443838:	e59f60b0 	ldr	r6, [pc, #176]	@ 0xc04438f0
c044383c:	e1a00001 	mov	r0, r1
c0443840:	e28d1002 	add	r1, sp, #2
c0443844:	e1a07002 	mov	r7, r2
c0443848:	e5963000 	ldr	r3, [r6]
c044384c:	e58d300c 	str	r3, [sp, #12]
c0443850:	e3a03000 	mov	r3, #0
c0443854:	e58d3002 	str	r3, [sp, #2]
c0443858:	e58d3006 	str	r3, [sp, #6]
c044385c:	e1cd30ba 	strh	r3, [sp, #10]
c0443860:	ebfffed1 	bl	0xc04433ac
c0443864:	e3500000 	cmp	r0, #0
c0443868:	ca00001c 	bgt	0xc04438e0
c044386c:	e59f4080 	ldr	r4, [pc, #128]	@ 0xc04438f4
c0443870:	e28d0002 	add	r0, sp, #2
c0443874:	e5941308 	ldr	r1, [r4, #776]	@ 0x308
c0443878:	eb084e18 	bl	0xc06570e0
c044387c:	e3500000 	cmp	r0, #0
c0443880:	0a000014 	beq	0xc04438d8
c0443884:	e594130c 	ldr	r1, [r4, #780]	@ 0x30c
c0443888:	e28d0002 	add	r0, sp, #2
c044388c:	eb084e13 	bl	0xc06570e0
c0443890:	e2504000 	subs	r4, r0, #0
c0443894:	1a000011 	bne	0xc04438e0
c0443898:	e59f5058 	ldr	r5, [pc, #88]	@ 0xc04438f8
c044389c:	e5950000 	ldr	r0, [r5]
c04438a0:	e2800070 	add	r0, r0, #112	@ 0x70
c04438a4:	eb087a7e 	bl	0xc06622a4
c04438a8:	e1a01004 	mov	r1, r4
c04438ac:	e5950000 	ldr	r0, [r5]
c04438b0:	ebfff22d 	bl	0xc044016c
c04438b4:	e5950000 	ldr	r0, [r5]
c04438b8:	e2800070 	add	r0, r0, #112	@ 0x70
c04438bc:	eb0878e1 	bl	0xc0661c48
c04438c0:	e59d200c 	ldr	r2, [sp, #12]
c04438c4:	e1a00007 	mov	r0, r7
c04438c8:	e5963000 	ldr	r3, [r6]
c04438cc:	e1520003 	cmp	r2, r3
c04438d0:	0a000004 	beq	0xc04438e8
c04438d4:	ebf35634 	bl	0xc01191ac
c04438d8:	e3a04001 	mov	r4, #1
c04438dc:	eaffffed 	b	0xc0443898
c04438e0:	e3e07015 	mvn	r7, #21
c04438e4:	eafffff5 	b	0xc04438c0
c04438e8:	e28dd014 	add	sp, sp, #20
c04438ec:	e8bd80f0 	pop	{r4, r5, r6, r7, pc}
c04438f0:	c0a04e08 	adcgt	r4, r0, r8, lsl #28
c04438f4:	c0a2d800 	adcgt	sp, r2, r0, lsl #16
c04438f8:	c0a5d4d0 	ldrdgt	sp, [r5], r0	@ <UNPREDICTABLE>
c04438fc:	e92d407f 	push	{r0, r1, r2, r3, r4, r5, r6, lr}
c0443900:	e1a00001 	mov	r0, r1
c0443904:	e59f40c8 	ldr	r4, [pc, #200]	@ 0xc04439d4
c0443908:	e28d1002 	add	r1, sp, #2
c044390c:	e1a05002 	mov	r5, r2
c0443910:	e5943000 	ldr	r3, [r4]
c0443914:	e58d300c 	str	r3, [sp, #12]
c0443918:	e3a03000 	mov	r3, #0
c044391c:	e58d3002 	str	r3, [sp, #2]
c0443920:	e58d3006 	str	r3, [sp, #6]
c0443924:	e1cd30ba 	strh	r3, [sp, #10]
c0443928:	ebfffe9f 	bl	0xc04433ac
c044392c:	e3500000 	cmp	r0, #0
c0443930:	ca00000b 	bgt	0xc0443964
c0443934:	e59f609c 	ldr	r6, [pc, #156]	@ 0xc04439d8
c0443938:	e28d0002 	add	r0, sp, #2
c044393c:	e5961338 	ldr	r1, [r6, #824]	@ 0x338
c0443940:	eb084de6 	bl	0xc06570e0
c0443944:	e3500000 	cmp	r0, #0
c0443948:	0a000007 	beq	0xc044396c
c044394c:	e596133c 	ldr	r1, [r6, #828]	@ 0x33c
c0443950:	e28d0002 	add	r0, sp, #2
c0443954:	eb084de1 	bl	0xc06570e0
c0443958:	e3500000 	cmp	r0, #0
c044395c:	03a02002 	moveq	r2, #2
c0443960:	0a000002 	beq	0xc0443970
c0443964:	e3e05015 	mvn	r5, #21
c0443968:	ea000011 	b	0xc04439b4
c044396c:	e3a02001 	mov	r2, #1
c0443970:	e59f3064 	ldr	r3, [pc, #100]	@ 0xc04439dc
c0443974:	e5930000 	ldr	r0, [r3]
c0443978:	e1a06003 	mov	r6, r3
c044397c:	e3500000 	cmp	r0, #0
c0443980:	0a00000b 	beq	0xc04439b4
c0443984:	e5d031ba 	ldrb	r3, [r0, #442]	@ 0x1ba
c0443988:	e3520002 	cmp	r2, #2
c044398c:	e2800070 	add	r0, r0, #112	@ 0x70
c0443990:	e3c33003 	bic	r3, r3, #3
c0443994:	13833001 	orrne	r3, r3, #1
c0443998:	03833002 	orreq	r3, r3, #2
c044399c:	e5c0314a 	strb	r3, [r0, #330]	@ 0x14a
c04439a0:	eb087a3f 	bl	0xc06622a4
c04439a4:	ebffed0c 	bl	0xc043eddc
c04439a8:	e5960000 	ldr	r0, [r6]
c04439ac:	e2800070 	add	r0, r0, #112	@ 0x70
c04439b0:	eb0878a4 	bl	0xc0661c48
c04439b4:	e59d200c 	ldr	r2, [sp, #12]
c04439b8:	e1a00005 	mov	r0, r5
c04439bc:	e5943000 	ldr	r3, [r4]
c04439c0:	e1520003 	cmp	r2, r3
c04439c4:	0a000000 	beq	0xc04439cc
c04439c8:	ebf355f7 	bl	0xc01191ac
c04439cc:	e28dd010 	add	sp, sp, #16
c04439d0:	e8bd8070 	pop	{r4, r5, r6, pc}
c04439d4:	c0a04e08 	adcgt	r4, r0, r8, lsl #28
c04439d8:	c0a2d800 	adcgt	sp, r2, r0, lsl #16
c04439dc:	c0a5d4d0 	ldrdgt	sp, [r5], r0	@ <UNPREDICTABLE>
c04439e0:	e92d407f 	push	{r0, r1, r2, r3, r4, r5, r6, lr}
c04439e4:	e1a00001 	mov	r0, r1
c04439e8:	e59f5110 	ldr	r5, [pc, #272]	@ 0xc0443b00
c04439ec:	e28d1002 	add	r1, sp, #2
c04439f0:	e1a06002 	mov	r6, r2
c04439f4:	e5953000 	ldr	r3, [r5]
c04439f8:	e58d300c 	str	r3, [sp, #12]
c04439fc:	e3a03000 	mov	r3, #0
c0443a00:	e58d3002 	str	r3, [sp, #2]
c0443a04:	e58d3006 	str	r3, [sp, #6]
c0443a08:	e1cd30ba 	strh	r3, [sp, #10]
c0443a0c:	ebfffe66 	bl	0xc04433ac
c0443a10:	e3500000 	cmp	r0, #0
c0443a14:	ca000014 	bgt	0xc0443a6c
c0443a18:	e59f10e4 	ldr	r1, [pc, #228]	@ 0xc0443b04
c0443a1c:	e28d0002 	add	r0, sp, #2
c0443a20:	eb084dae 	bl	0xc06570e0
c0443a24:	e3500000 	cmp	r0, #0
c0443a28:	0a000012 	beq	0xc0443a78
c0443a2c:	e59f10d4 	ldr	r1, [pc, #212]	@ 0xc0443b08
c0443a30:	e28d0002 	add	r0, sp, #2
c0443a34:	eb084da9 	bl	0xc06570e0
c0443a38:	e3500000 	cmp	r0, #0
c0443a3c:	0a00000c 	beq	0xc0443a74
c0443a40:	e59f10c4 	ldr	r1, [pc, #196]	@ 0xc0443b0c
c0443a44:	e28d0002 	add	r0, sp, #2
c0443a48:	eb084da4 	bl	0xc06570e0
c0443a4c:	e3500000 	cmp	r0, #0
c0443a50:	0a000026 	beq	0xc0443af0
c0443a54:	e59f10b4 	ldr	r1, [pc, #180]	@ 0xc0443b10
c0443a58:	e28d0002 	add	r0, sp, #2
c0443a5c:	eb084d9f 	bl	0xc06570e0
c0443a60:	e3500000 	cmp	r0, #0
c0443a64:	03a00003 	moveq	r0, #3
c0443a68:	0a000002 	beq	0xc0443a78
c0443a6c:	e3e06015 	mvn	r6, #21
c0443a70:	ea000018 	b	0xc0443ad8
c0443a74:	e3a00001 	mov	r0, #1
c0443a78:	e59f2094 	ldr	r2, [pc, #148]	@ 0xc0443b14
c0443a7c:	e5923000 	ldr	r3, [r2]
c0443a80:	e1a04002 	mov	r4, r2
c0443a84:	e3530000 	cmp	r3, #0
c0443a88:	0a000012 	beq	0xc0443ad8
c0443a8c:	e3500002 	cmp	r0, #2
c0443a90:	e3a02000 	mov	r2, #0
c0443a94:	e58321ba 	str	r2, [r3, #442]	@ 0x1ba
c0443a98:	0a000007 	beq	0xc0443abc
c0443a9c:	e3500003 	cmp	r0, #3
c0443aa0:	03a0200f 	moveq	r2, #15
c0443aa4:	05c321bb 	strbeq	r2, [r3, #443]	@ 0x1bb
c0443aa8:	0a000004 	beq	0xc0443ac0
c0443aac:	e3500001 	cmp	r0, #1
c0443ab0:	159321be 	ldrne	r2, [r3, #446]	@ 0x1be
c0443ab4:	158321ba 	strne	r2, [r3, #442]	@ 0x1ba
c0443ab8:	1a000000 	bne	0xc0443ac0
c0443abc:	e5c301ba 	strb	r0, [r3, #442]	@ 0x1ba
c0443ac0:	e2830070 	add	r0, r3, #112	@ 0x70
c0443ac4:	eb0879f6 	bl	0xc06622a4
c0443ac8:	ebffecc3 	bl	0xc043eddc
c0443acc:	e5940000 	ldr	r0, [r4]
c0443ad0:	e2800070 	add	r0, r0, #112	@ 0x70
c0443ad4:	eb08785b 	bl	0xc0661c48
c0443ad8:	e59d200c 	ldr	r2, [sp, #12]
c0443adc:	e1a00006 	mov	r0, r6
c0443ae0:	e5953000 	ldr	r3, [r5]
c0443ae4:	e1520003 	cmp	r2, r3
c0443ae8:	0a000002 	beq	0xc0443af8
c0443aec:	ebf355ae 	bl	0xc01191ac
c0443af0:	e3a00002 	mov	r0, #2
c0443af4:	eaffffdf 	b	0xc0443a78
c0443af8:	e28dd010 	add	sp, sp, #16
c0443afc:	e8bd8070 	pop	{r4, r5, r6, pc}
c0443b00:	c0a04e08 	adcgt	r4, r0, r8, lsl #28
c0443b04:	c07c97fa 	ldrshtgt	r9, [ip], #-122	@ 0xffffff86
c0443b08:	c07ca440 	rsbsgt	sl, ip, r0, asr #8
c0443b0c:	c07db014 	rsbsgt	fp, sp, r4, lsl r0
c0443b10:	c07d9e94 			@ <UNDEFINED> instruction: 0xc07d9e94
c0443b14:	c0a5d4d0 	ldrdgt	sp, [r5], r0	@ <UNPREDICTABLE>
c0443b18:	e92d40f0 	push	{r4, r5, r6, r7, lr}
c0443b1c:	e24dd014 	sub	sp, sp, #20
c0443b20:	e59f50c0 	ldr	r5, [pc, #192]	@ 0xc0443be8
c0443b24:	e1a00001 	mov	r0, r1
c0443b28:	e28d1002 	add	r1, sp, #2
c0443b2c:	e1a06002 	mov	r6, r2
c0443b30:	e5953000 	ldr	r3, [r5]
c0443b34:	e58d300c 	str	r3, [sp, #12]
c0443b38:	e3a03000 	mov	r3, #0
c0443b3c:	e58d3002 	str	r3, [sp, #2]
c0443b40:	e58d3006 	str	r3, [sp, #6]
c0443b44:	e1cd30ba 	strh	r3, [sp, #10]
c0443b48:	ebfffe17 	bl	0xc04433ac
c0443b4c:	e3500000 	cmp	r0, #0
c0443b50:	c3e06015 	mvngt	r6, #21
c0443b54:	ca00000f 	bgt	0xc0443b98
c0443b58:	e59f408c 	ldr	r4, [pc, #140]	@ 0xc0443bec
c0443b5c:	e28d0002 	add	r0, sp, #2
c0443b60:	e5941010 	ldr	r1, [r4, #16]
c0443b64:	eb084d5d 	bl	0xc06570e0
c0443b68:	e3500000 	cmp	r0, #0
c0443b6c:	1a00000f 	bne	0xc0443bb0
c0443b70:	e59f4078 	ldr	r4, [pc, #120]	@ 0xc0443bf0
c0443b74:	e5940000 	ldr	r0, [r4]
c0443b78:	e2800070 	add	r0, r0, #112	@ 0x70
c0443b7c:	eb0879c8 	bl	0xc06622a4
c0443b80:	e3a01001 	mov	r1, #1
c0443b84:	e3a00001 	mov	r0, #1
c0443b88:	ebffec5b 	bl	0xc043ecfc
c0443b8c:	e5940000 	ldr	r0, [r4]
c0443b90:	e2800070 	add	r0, r0, #112	@ 0x70
c0443b94:	eb08782b 	bl	0xc0661c48
c0443b98:	e59d200c 	ldr	r2, [sp, #12]
c0443b9c:	e1a00006 	mov	r0, r6
c0443ba0:	e5953000 	ldr	r3, [r5]
c0443ba4:	e1520003 	cmp	r2, r3
c0443ba8:	0a00000c 	beq	0xc0443be0
c0443bac:	ebf3557e 	bl	0xc01191ac
c0443bb0:	e5941014 	ldr	r1, [r4, #20]
c0443bb4:	e28d0002 	add	r0, sp, #2
c0443bb8:	eb084d48 	bl	0xc06570e0
c0443bbc:	e2507000 	subs	r7, r0, #0
c0443bc0:	13e06004 	mvnne	r6, #4
c0443bc4:	1afffff3 	bne	0xc0443b98
c0443bc8:	e59f4020 	ldr	r4, [pc, #32]	@ 0xc0443bf0
c0443bcc:	e5940000 	ldr	r0, [r4]
c0443bd0:	e2800070 	add	r0, r0, #112	@ 0x70
c0443bd4:	eb0879b2 	bl	0xc06622a4
c0443bd8:	e1a01007 	mov	r1, r7
c0443bdc:	eaffffe8 	b	0xc0443b84
c0443be0:	e28dd014 	add	sp, sp, #20
c0443be4:	e8bd80f0 	pop	{r4, r5, r6, r7, pc}
c0443be8:	c0a04e08 	adcgt	r4, r0, r8, lsl #28
c0443bec:	c0a2d800 	adcgt	sp, r2, r0, lsl #16
c0443bf0:	c0a5d4d0 	ldrdgt	sp, [r5], r0	@ <UNPREDICTABLE>
c0443bf4:	e92d40f0 	push	{r4, r5, r6, r7, lr}
c0443bf8:	e24dd014 	sub	sp, sp, #20
c0443bfc:	e59f50c0 	ldr	r5, [pc, #192]	@ 0xc0443cc4
c0443c00:	e1a00001 	mov	r0, r1
c0443c04:	e28d1002 	add	r1, sp, #2
c0443c08:	e1a06002 	mov	r6, r2
c0443c0c:	e5953000 	ldr	r3, [r5]
c0443c10:	e58d300c 	str	r3, [sp, #12]
c0443c14:	e3a03000 	mov	r3, #0
c0443c18:	e58d3002 	str	r3, [sp, #2]
c0443c1c:	e58d3006 	str	r3, [sp, #6]
c0443c20:	e1cd30ba 	strh	r3, [sp, #10]
c0443c24:	ebfffde0 	bl	0xc04433ac
c0443c28:	e3500000 	cmp	r0, #0
c0443c2c:	c3e06015 	mvngt	r6, #21
c0443c30:	ca00000f 	bgt	0xc0443c74
c0443c34:	e59f408c 	ldr	r4, [pc, #140]	@ 0xc0443cc8
c0443c38:	e28d0002 	add	r0, sp, #2
c0443c3c:	e5941038 	ldr	r1, [r4, #56]	@ 0x38
c0443c40:	eb084d26 	bl	0xc06570e0
c0443c44:	e3500000 	cmp	r0, #0
c0443c48:	1a00000f 	bne	0xc0443c8c
c0443c4c:	e59f4078 	ldr	r4, [pc, #120]	@ 0xc0443ccc
c0443c50:	e5940000 	ldr	r0, [r4]
c0443c54:	e2800070 	add	r0, r0, #112	@ 0x70
c0443c58:	eb087991 	bl	0xc06622a4
c0443c5c:	e3a01001 	mov	r1, #1
c0443c60:	e3a00002 	mov	r0, #2
c0443c64:	ebffec24 	bl	0xc043ecfc
c0443c68:	e5940000 	ldr	r0, [r4]
c0443c6c:	e2800070 	add	r0, r0, #112	@ 0x70
c0443c70:	eb0877f4 	bl	0xc0661c48
c0443c74:	e59d200c 	ldr	r2, [sp, #12]
c0443c78:	e1a00006 	mov	r0, r6
c0443c7c:	e5953000 	ldr	r3, [r5]
c0443c80:	e1520003 	cmp	r2, r3
c0443c84:	0a00000c 	beq	0xc0443cbc
c0443c88:	ebf35547 	bl	0xc01191ac
c0443c8c:	e594103c 	ldr	r1, [r4, #60]	@ 0x3c
c0443c90:	e28d0002 	add	r0, sp, #2
c0443c94:	eb084d11 	bl	0xc06570e0
c0443c98:	e2507000 	subs	r7, r0, #0
c0443c9c:	13e06004 	mvnne	r6, #4
c0443ca0:	1afffff3 	bne	0xc0443c74
c0443ca4:	e59f4020 	ldr	r4, [pc, #32]	@ 0xc0443ccc
c0443ca8:	e5940000 	ldr	r0, [r4]
c0443cac:	e2800070 	add	r0, r0, #112	@ 0x70
c0443cb0:	eb08797b 	bl	0xc06622a4
c0443cb4:	e1a01007 	mov	r1, r7
c0443cb8:	eaffffe8 	b	0xc0443c60
c0443cbc:	e28dd014 	add	sp, sp, #20
c0443cc0:	e8bd80f0 	pop	{r4, r5, r6, r7, pc}
c0443cc4:	c0a04e08 	adcgt	r4, r0, r8, lsl #28
c0443cc8:	c0a2d800 	adcgt	sp, r2, r0, lsl #16
c0443ccc:	c0a5d4d0 	ldrdgt	sp, [r5], r0	@ <UNPREDICTABLE>
c0443cd0:	e92d40f0 	push	{r4, r5, r6, r7, lr}
c0443cd4:	e24dd014 	sub	sp, sp, #20
c0443cd8:	e59f50c0 	ldr	r5, [pc, #192]	@ 0xc0443da0
c0443cdc:	e1a00001 	mov	r0, r1
c0443ce0:	e28d1002 	add	r1, sp, #2
c0443ce4:	e1a06002 	mov	r6, r2
c0443ce8:	e5953000 	ldr	r3, [r5]
c0443cec:	e58d300c 	str	r3, [sp, #12]
c0443cf0:	e3a03000 	mov	r3, #0
c0443cf4:	e58d3002 	str	r3, [sp, #2]
c0443cf8:	e58d3006 	str	r3, [sp, #6]
c0443cfc:	e1cd30ba 	strh	r3, [sp, #10]
c0443d00:	ebfffda9 	bl	0xc04433ac
c0443d04:	e3500000 	cmp	r0, #0
c0443d08:	c3e06015 	mvngt	r6, #21
c0443d0c:	ca00000f 	bgt	0xc0443d50
c0443d10:	e59f408c 	ldr	r4, [pc, #140]	@ 0xc0443da4
c0443d14:	e28d0002 	add	r0, sp, #2
c0443d18:	e5941060 	ldr	r1, [r4, #96]	@ 0x60
c0443d1c:	eb084cef 	bl	0xc06570e0
c0443d20:	e3500000 	cmp	r0, #0
c0443d24:	1a00000f 	bne	0xc0443d68
c0443d28:	e59f4078 	ldr	r4, [pc, #120]	@ 0xc0443da8
c0443d2c:	e5940000 	ldr	r0, [r4]
c0443d30:	e2800070 	add	r0, r0, #112	@ 0x70
c0443d34:	eb08795a 	bl	0xc06622a4
c0443d38:	e3a01001 	mov	r1, #1
c0443d3c:	e3a00003 	mov	r0, #3
c0443d40:	ebffebed 	bl	0xc043ecfc
c0443d44:	e5940000 	ldr	r0, [r4]
c0443d48:	e2800070 	add	r0, r0, #112	@ 0x70
c0443d4c:	eb0877bd 	bl	0xc0661c48
c0443d50:	e59d200c 	ldr	r2, [sp, #12]
c0443d54:	e1a00006 	mov	r0, r6
c0443d58:	e5953000 	ldr	r3, [r5]
c0443d5c:	e1520003 	cmp	r2, r3
c0443d60:	0a00000c 	beq	0xc0443d98
c0443d64:	ebf35510 	bl	0xc01191ac
c0443d68:	e5941064 	ldr	r1, [r4, #100]	@ 0x64
c0443d6c:	e28d0002 	add	r0, sp, #2
c0443d70:	eb084cda 	bl	0xc06570e0
c0443d74:	e2507000 	subs	r7, r0, #0
c0443d78:	13e06004 	mvnne	r6, #4
c0443d7c:	1afffff3 	bne	0xc0443d50
c0443d80:	e59f4020 	ldr	r4, [pc, #32]	@ 0xc0443da8
c0443d84:	e5940000 	ldr	r0, [r4]
c0443d88:	e2800070 	add	r0, r0, #112	@ 0x70
c0443d8c:	eb087944 	bl	0xc06622a4
c0443d90:	e1a01007 	mov	r1, r7
c0443d94:	eaffffe8 	b	0xc0443d3c
c0443d98:	e28dd014 	add	sp, sp, #20
c0443d9c:	e8bd80f0 	pop	{r4, r5, r6, r7, pc}
c0443da0:	c0a04e08 	adcgt	r4, r0, r8, lsl #28
c0443da4:	c0a2d800 	adcgt	sp, r2, r0, lsl #16
c0443da8:	c0a5d4d0 	ldrdgt	sp, [r5], r0	@ <UNPREDICTABLE>
c0443dac:	e92d40f0 	push	{r4, r5, r6, r7, lr}
c0443db0:	e24dd014 	sub	sp, sp, #20
c0443db4:	e59f50c0 	ldr	r5, [pc, #192]	@ 0xc0443e7c
c0443db8:	e1a00001 	mov	r0, r1
c0443dbc:	e28d1002 	add	r1, sp, #2
c0443dc0:	e1a06002 	mov	r6, r2
c0443dc4:	e5953000 	ldr	r3, [r5]
c0443dc8:	e58d300c 	str	r3, [sp, #12]
c0443dcc:	e3a03000 	mov	r3, #0
c0443dd0:	e58d3002 	str	r3, [sp, #2]
c0443dd4:	e58d3006 	str	r3, [sp, #6]
c0443dd8:	e1cd30ba 	strh	r3, [sp, #10]
c0443ddc:	ebfffd72 	bl	0xc04433ac
c0443de0:	e3500000 	cmp	r0, #0
c0443de4:	c3e06015 	mvngt	r6, #21
c0443de8:	ca00000f 	bgt	0xc0443e2c
c0443dec:	e59f408c 	ldr	r4, [pc, #140]	@ 0xc0443e80
c0443df0:	e28d0002 	add	r0, sp, #2
c0443df4:	e5941088 	ldr	r1, [r4, #136]	@ 0x88
c0443df8:	eb084cb8 	bl	0xc06570e0
c0443dfc:	e3500000 	cmp	r0, #0
c0443e00:	1a00000f 	bne	0xc0443e44
c0443e04:	e59f4078 	ldr	r4, [pc, #120]	@ 0xc0443e84
c0443e08:	e5940000 	ldr	r0, [r4]
c0443e0c:	e2800070 	add	r0, r0, #112	@ 0x70
c0443e10:	eb087923 	bl	0xc06622a4
c0443e14:	e3a01001 	mov	r1, #1
c0443e18:	e3a00004 	mov	r0, #4
c0443e1c:	ebffebb6 	bl	0xc043ecfc
c0443e20:	e5940000 	ldr	r0, [r4]
c0443e24:	e2800070 	add	r0, r0, #112	@ 0x70
c0443e28:	eb087786 	bl	0xc0661c48
c0443e2c:	e59d200c 	ldr	r2, [sp, #12]
c0443e30:	e1a00006 	mov	r0, r6
c0443e34:	e5953000 	ldr	r3, [r5]
c0443e38:	e1520003 	cmp	r2, r3
c0443e3c:	0a00000c 	beq	0xc0443e74
c0443e40:	ebf354d9 	bl	0xc01191ac
c0443e44:	e594108c 	ldr	r1, [r4, #140]	@ 0x8c
c0443e48:	e28d0002 	add	r0, sp, #2
c0443e4c:	eb084ca3 	bl	0xc06570e0
c0443e50:	e2507000 	subs	r7, r0, #0
c0443e54:	13e06004 	mvnne	r6, #4
c0443e58:	1afffff3 	bne	0xc0443e2c
c0443e5c:	e59f4020 	ldr	r4, [pc, #32]	@ 0xc0443e84
c0443e60:	e5940000 	ldr	r0, [r4]
c0443e64:	e2800070 	add	r0, r0, #112	@ 0x70
c0443e68:	eb08790d 	bl	0xc06622a4
c0443e6c:	e1a01007 	mov	r1, r7
c0443e70:	eaffffe8 	b	0xc0443e18
c0443e74:	e28dd014 	add	sp, sp, #20
c0443e78:	e8bd80f0 	pop	{r4, r5, r6, r7, pc}
c0443e7c:	c0a04e08 	adcgt	r4, r0, r8, lsl #28
c0443e80:	c0a2d800 	adcgt	sp, r2, r0, lsl #16
c0443e84:	c0a5d4d0 	ldrdgt	sp, [r5], r0	@ <UNPREDICTABLE>
c0443e88:	e92d40f0 	push	{r4, r5, r6, r7, lr}
c0443e8c:	e24dd014 	sub	sp, sp, #20
c0443e90:	e59f50c0 	ldr	r5, [pc, #192]	@ 0xc0443f58
c0443e94:	e1a00001 	mov	r0, r1
c0443e98:	e28d1002 	add	r1, sp, #2
c0443e9c:	e1a06002 	mov	r6, r2
c0443ea0:	e5953000 	ldr	r3, [r5]
c0443ea4:	e58d300c 	str	r3, [sp, #12]
c0443ea8:	e3a03000 	mov	r3, #0
c0443eac:	e58d3002 	str	r3, [sp, #2]
c0443eb0:	e58d3006 	str	r3, [sp, #6]
c0443eb4:	e1cd30ba 	strh	r3, [sp, #10]
c0443eb8:	ebfffd3b 	bl	0xc04433ac
c0443ebc:	e3500000 	cmp	r0, #0
c0443ec0:	c3e06015 	mvngt	r6, #21
c0443ec4:	ca00000f 	bgt	0xc0443f08
c0443ec8:	e59f408c 	ldr	r4, [pc, #140]	@ 0xc0443f5c
c0443ecc:	e28d0002 	add	r0, sp, #2
c0443ed0:	e59410b0 	ldr	r1, [r4, #176]	@ 0xb0
c0443ed4:	eb084c81 	bl	0xc06570e0
c0443ed8:	e3500000 	cmp	r0, #0
c0443edc:	1a00000f 	bne	0xc0443f20
c0443ee0:	e59f4078 	ldr	r4, [pc, #120]	@ 0xc0443f60
c0443ee4:	e5940000 	ldr	r0, [r4]
c0443ee8:	e2800070 	add	r0, r0, #112	@ 0x70
c0443eec:	eb0878ec 	bl	0xc06622a4
c0443ef0:	e3a01001 	mov	r1, #1
c0443ef4:	e3a00005 	mov	r0, #5
c0443ef8:	ebffeb7f 	bl	0xc043ecfc
c0443efc:	e5940000 	ldr	r0, [r4]
c0443f00:	e2800070 	add	r0, r0, #112	@ 0x70
c0443f04:	eb08774f 	bl	0xc0661c48
c0443f08:	e59d200c 	ldr	r2, [sp, #12]
c0443f0c:	e1a00006 	mov	r0, r6
c0443f10:	e5953000 	ldr	r3, [r5]
c0443f14:	e1520003 	cmp	r2, r3
c0443f18:	0a00000c 	beq	0xc0443f50
c0443f1c:	ebf354a2 	bl	0xc01191ac
c0443f20:	e59410b4 	ldr	r1, [r4, #180]	@ 0xb4
c0443f24:	e28d0002 	add	r0, sp, #2
c0443f28:	eb084c6c 	bl	0xc06570e0
c0443f2c:	e2507000 	subs	r7, r0, #0
c0443f30:	13e06004 	mvnne	r6, #4
c0443f34:	1afffff3 	bne	0xc0443f08
c0443f38:	e59f4020 	ldr	r4, [pc, #32]	@ 0xc0443f60
c0443f3c:	e5940000 	ldr	r0, [r4]
c0443f40:	e2800070 	add	r0, r0, #112	@ 0x70
c0443f44:	eb0878d6 	bl	0xc06622a4
c0443f48:	e1a01007 	mov	r1, r7
c0443f4c:	eaffffe8 	b	0xc0443ef4
c0443f50:	e28dd014 	add	sp, sp, #20
c0443f54:	e8bd80f0 	pop	{r4, r5, r6, r7, pc}
c0443f58:	c0a04e08 	adcgt	r4, r0, r8, lsl #28
c0443f5c:	c0a2d800 	adcgt	sp, r2, r0, lsl #16
c0443f60:	c0a5d4d0 	ldrdgt	sp, [r5], r0	@ <UNPREDICTABLE>
c0443f64:	e92d40f0 	push	{r4, r5, r6, r7, lr}
c0443f68:	e24dd014 	sub	sp, sp, #20
c0443f6c:	e59f50c0 	ldr	r5, [pc, #192]	@ 0xc0444034
c0443f70:	e1a00001 	mov	r0, r1
c0443f74:	e28d1002 	add	r1, sp, #2
c0443f78:	e1a06002 	mov	r6, r2
c0443f7c:	e5953000 	ldr	r3, [r5]
c0443f80:	e58d300c 	str	r3, [sp, #12]
c0443f84:	e3a03000 	mov	r3, #0
c0443f88:	e58d3002 	str	r3, [sp, #2]
c0443f8c:	e58d3006 	str	r3, [sp, #6]
c0443f90:	e1cd30ba 	strh	r3, [sp, #10]
c0443f94:	ebfffd04 	bl	0xc04433ac
c0443f98:	e3500000 	cmp	r0, #0
c0443f9c:	c3e06015 	mvngt	r6, #21
c0443fa0:	ca00000f 	bgt	0xc0443fe4
c0443fa4:	e59f408c 	ldr	r4, [pc, #140]	@ 0xc0444038
c0443fa8:	e28d0002 	add	r0, sp, #2
c0443fac:	e59410d8 	ldr	r1, [r4, #216]	@ 0xd8
c0443fb0:	eb084c4a 	bl	0xc06570e0
c0443fb4:	e3500000 	cmp	r0, #0
c0443fb8:	1a00000f 	bne	0xc0443ffc
c0443fbc:	e59f4078 	ldr	r4, [pc, #120]	@ 0xc044403c
c0443fc0:	e5940000 	ldr	r0, [r4]
c0443fc4:	e2800070 	add	r0, r0, #112	@ 0x70
c0443fc8:	eb0878b5 	bl	0xc06622a4
c0443fcc:	e3a01001 	mov	r1, #1
c0443fd0:	e3a00006 	mov	r0, #6
c0443fd4:	ebffeb48 	bl	0xc043ecfc
c0443fd8:	e5940000 	ldr	r0, [r4]
c0443fdc:	e2800070 	add	r0, r0, #112	@ 0x70
c0443fe0:	eb087718 	bl	0xc0661c48
c0443fe4:	e59d200c 	ldr	r2, [sp, #12]
c0443fe8:	e1a00006 	mov	r0, r6
c0443fec:	e5953000 	ldr	r3, [r5]
c0443ff0:	e1520003 	cmp	r2, r3
c0443ff4:	0a00000c 	beq	0xc044402c
c0443ff8:	ebf3546b 	bl	0xc01191ac
c0443ffc:	e59410dc 	ldr	r1, [r4, #220]	@ 0xdc
c0444000:	e28d0002 	add	r0, sp, #2
c0444004:	eb084c35 	bl	0xc06570e0
c0444008:	e2507000 	subs	r7, r0, #0
c044400c:	13e06004 	mvnne	r6, #4
c0444010:	1afffff3 	bne	0xc0443fe4
c0444014:	e59f4020 	ldr	r4, [pc, #32]	@ 0xc044403c
c0444018:	e5940000 	ldr	r0, [r4]
c044401c:	e2800070 	add	r0, r0, #112	@ 0x70
c0444020:	eb08789f 	bl	0xc06622a4
c0444024:	e1a01007 	mov	r1, r7
c0444028:	eaffffe8 	b	0xc0443fd0
c044402c:	e28dd014 	add	sp, sp, #20
c0444030:	e8bd80f0 	pop	{r4, r5, r6, r7, pc}
c0444034:	c0a04e08 	adcgt	r4, r0, r8, lsl #28
c0444038:	c0a2d800 	adcgt	sp, r2, r0, lsl #16
c044403c:	c0a5d4d0 	ldrdgt	sp, [r5], r0	@ <UNPREDICTABLE>
c0444040:	e92d40f0 	push	{r4, r5, r6, r7, lr}
c0444044:	e24dd014 	sub	sp, sp, #20
c0444048:	e59f5180 	ldr	r5, [pc, #384]	@ 0xc04441d0
c044404c:	e1a00001 	mov	r0, r1
c0444050:	e28d1002 	add	r1, sp, #2
c0444054:	e1a06002 	mov	r6, r2
c0444058:	e5953000 	ldr	r3, [r5]
c044405c:	e58d300c 	str	r3, [sp, #12]
c0444060:	e3a03000 	mov	r3, #0
c0444064:	e58d3002 	str	r3, [sp, #2]
c0444068:	e58d3006 	str	r3, [sp, #6]
c044406c:	e1cd30ba 	strh	r3, [sp, #10]
c0444070:	ebfffccd 	bl	0xc04433ac
c0444074:	e3500000 	cmp	r0, #0
c0444078:	c3e06015 	mvngt	r6, #21
c044407c:	ca000010 	bgt	0xc04440c4
c0444080:	e59f414c 	ldr	r4, [pc, #332]	@ 0xc04441d4
c0444084:	e28d0002 	add	r0, sp, #2
c0444088:	e5941108 	ldr	r1, [r4, #264]	@ 0x108
c044408c:	eb084c13 	bl	0xc06570e0
c0444090:	e2507000 	subs	r7, r0, #0
c0444094:	1a000010 	bne	0xc04440dc
c0444098:	e59f4138 	ldr	r4, [pc, #312]	@ 0xc04441d8
c044409c:	e5940000 	ldr	r0, [r4]
c04440a0:	e2800070 	add	r0, r0, #112	@ 0x70
c04440a4:	eb08787e 	bl	0xc06622a4
c04440a8:	e1a02007 	mov	r2, r7
c04440ac:	e3a01001 	mov	r1, #1
c04440b0:	e3a00007 	mov	r0, #7
c04440b4:	ebffead9 	bl	0xc043ec20
c04440b8:	e5940000 	ldr	r0, [r4]
c04440bc:	e2800070 	add	r0, r0, #112	@ 0x70
c04440c0:	eb0876e0 	bl	0xc0661c48
c04440c4:	e59d200c 	ldr	r2, [sp, #12]
c04440c8:	e1a00006 	mov	r0, r6
c04440cc:	e5953000 	ldr	r3, [r5]
c04440d0:	e1520003 	cmp	r2, r3
c04440d4:	0a00003b 	beq	0xc04441c8
c04440d8:	ebf35433 	bl	0xc01191ac
c04440dc:	e594110c 	ldr	r1, [r4, #268]	@ 0x10c
c04440e0:	e28d0002 	add	r0, sp, #2
c04440e4:	eb084bfd 	bl	0xc06570e0
c04440e8:	e3500000 	cmp	r0, #0
c04440ec:	1a000005 	bne	0xc0444108
c04440f0:	e59f40e0 	ldr	r4, [pc, #224]	@ 0xc04441d8
c04440f4:	e5940000 	ldr	r0, [r4]
c04440f8:	e2800070 	add	r0, r0, #112	@ 0x70
c04440fc:	eb087868 	bl	0xc06622a4
c0444100:	e3a02001 	mov	r2, #1
c0444104:	eaffffe8 	b	0xc04440ac
c0444108:	e5941110 	ldr	r1, [r4, #272]	@ 0x110
c044410c:	e28d0002 	add	r0, sp, #2
c0444110:	eb084bf2 	bl	0xc06570e0
c0444114:	e3500000 	cmp	r0, #0
c0444118:	1a000005 	bne	0xc0444134
c044411c:	e59f40b4 	ldr	r4, [pc, #180]	@ 0xc04441d8
c0444120:	e5940000 	ldr	r0, [r4]
c0444124:	e2800070 	add	r0, r0, #112	@ 0x70
c0444128:	eb08785d 	bl	0xc06622a4
c044412c:	e3a02002 	mov	r2, #2
c0444130:	eaffffdd 	b	0xc04440ac
c0444134:	e5941114 	ldr	r1, [r4, #276]	@ 0x114
c0444138:	e28d0002 	add	r0, sp, #2
c044413c:	eb084be7 	bl	0xc06570e0
c0444140:	e3500000 	cmp	r0, #0
c0444144:	1a000005 	bne	0xc0444160
c0444148:	e59f4088 	ldr	r4, [pc, #136]	@ 0xc04441d8
c044414c:	e5940000 	ldr	r0, [r4]
c0444150:	e2800070 	add	r0, r0, #112	@ 0x70
c0444154:	eb087852 	bl	0xc06622a4
c0444158:	e3a02003 	mov	r2, #3
c044415c:	eaffffd2 	b	0xc04440ac
c0444160:	e5941100 	ldr	r1, [r4, #256]	@ 0x100
c0444164:	e28d0002 	add	r0, sp, #2
c0444168:	eb084bdc 	bl	0xc06570e0
c044416c:	e3500000 	cmp	r0, #0
c0444170:	1a000006 	bne	0xc0444190
c0444174:	e59f405c 	ldr	r4, [pc, #92]	@ 0xc04441d8
c0444178:	e5940000 	ldr	r0, [r4]
c044417c:	e2800070 	add	r0, r0, #112	@ 0x70
c0444180:	eb087847 	bl	0xc06622a4
c0444184:	e5943000 	ldr	r3, [r4]
c0444188:	e5d321ad 	ldrb	r2, [r3, #429]	@ 0x1ad
c044418c:	eaffffc6 	b	0xc04440ac
c0444190:	e5941104 	ldr	r1, [r4, #260]	@ 0x104
c0444194:	e28d0002 	add	r0, sp, #2
c0444198:	eb084bd0 	bl	0xc06570e0
c044419c:	e2507000 	subs	r7, r0, #0
c04441a0:	13e06004 	mvnne	r6, #4
c04441a4:	1affffc6 	bne	0xc04440c4
c04441a8:	e59f4028 	ldr	r4, [pc, #40]	@ 0xc04441d8
c04441ac:	e5940000 	ldr	r0, [r4]
c04441b0:	e2800070 	add	r0, r0, #112	@ 0x70
c04441b4:	eb08783a 	bl	0xc06622a4
c04441b8:	e5943000 	ldr	r3, [r4]
c04441bc:	e1a01007 	mov	r1, r7
c04441c0:	e5d321ad 	ldrb	r2, [r3, #429]	@ 0x1ad
c04441c4:	eaffffb9 	b	0xc04440b0
c04441c8:	e28dd014 	add	sp, sp, #20
c04441cc:	e8bd80f0 	pop	{r4, r5, r6, r7, pc}
c04441d0:	c0a04e08 	adcgt	r4, r0, r8, lsl #28
c04441d4:	c0a2d800 	adcgt	sp, r2, r0, lsl #16
c04441d8:	c0a5d4d0 	ldrdgt	sp, [r5], r0	@ <UNPREDICTABLE>
c04441dc:	e92d40f0 	push	{r4, r5, r6, r7, lr}
c04441e0:	e24dd014 	sub	sp, sp, #20
c04441e4:	e59f5100 	ldr	r5, [pc, #256]	@ 0xc04442ec
c04441e8:	e1a00001 	mov	r0, r1
c04441ec:	e28d1002 	add	r1, sp, #2
c04441f0:	e1a06002 	mov	r6, r2
c04441f4:	e5953000 	ldr	r3, [r5]
c04441f8:	e58d300c 	str	r3, [sp, #12]
c04441fc:	e3a03000 	mov	r3, #0
c0444200:	e58d3002 	str	r3, [sp, #2]
c0444204:	e58d3006 	str	r3, [sp, #6]
c0444208:	e1cd30ba 	strh	r3, [sp, #10]
c044420c:	ebfffc66 	bl	0xc04433ac
c0444210:	e3500000 	cmp	r0, #0
c0444214:	ca000030 	bgt	0xc04442dc
c0444218:	e59f40d0 	ldr	r4, [pc, #208]	@ 0xc04442f0
c044421c:	e28d0002 	add	r0, sp, #2
c0444220:	e59412e4 	ldr	r1, [r4, #740]	@ 0x2e4
c0444224:	eb084bad 	bl	0xc06570e0
c0444228:	e2507000 	subs	r7, r0, #0
c044422c:	1a000010 	bne	0xc0444274
c0444230:	e59f40bc 	ldr	r4, [pc, #188]	@ 0xc04442f4
c0444234:	e5940000 	ldr	r0, [r4]
c0444238:	e2800070 	add	r0, r0, #112	@ 0x70
c044423c:	eb087818 	bl	0xc06622a4
c0444240:	e1a01007 	mov	r1, r7
c0444244:	e5940000 	ldr	r0, [r4]
c0444248:	ebffeea8 	bl	0xc043fcf0
c044424c:	ebfff1a1 	bl	0xc04408d8
c0444250:	e5940000 	ldr	r0, [r4]
c0444254:	e2800070 	add	r0, r0, #112	@ 0x70
c0444258:	eb08767a 	bl	0xc0661c48
c044425c:	e59d200c 	ldr	r2, [sp, #12]
c0444260:	e1a00006 	mov	r0, r6
c0444264:	e5953000 	ldr	r3, [r5]
c0444268:	e1520003 	cmp	r2, r3
c044426c:	0a00001c 	beq	0xc04442e4
c0444270:	ebf353cd 	bl	0xc01191ac
c0444274:	e59412e8 	ldr	r1, [r4, #744]	@ 0x2e8
c0444278:	e28d0002 	add	r0, sp, #2
c044427c:	eb084b97 	bl	0xc06570e0
c0444280:	e3500000 	cmp	r0, #0
c0444284:	1a000008 	bne	0xc04442ac
c0444288:	e59f4064 	ldr	r4, [pc, #100]	@ 0xc04442f4
c044428c:	e5940000 	ldr	r0, [r4]
c0444290:	e2800070 	add	r0, r0, #112	@ 0x70
c0444294:	eb087802 	bl	0xc06622a4
c0444298:	ebfff188 	bl	0xc04408c0
c044429c:	e3a01001 	mov	r1, #1
c04442a0:	e5940000 	ldr	r0, [r4]
c04442a4:	ebffee91 	bl	0xc043fcf0
c04442a8:	eaffffe8 	b	0xc0444250
c04442ac:	e59412ec 	ldr	r1, [r4, #748]	@ 0x2ec
c04442b0:	e28d0002 	add	r0, sp, #2
c04442b4:	eb084b89 	bl	0xc06570e0
c04442b8:	e3500000 	cmp	r0, #0
c04442bc:	1a000006 	bne	0xc04442dc
c04442c0:	e59f402c 	ldr	r4, [pc, #44]	@ 0xc04442f4
c04442c4:	e5940000 	ldr	r0, [r4]
c04442c8:	e2800070 	add	r0, r0, #112	@ 0x70
c04442cc:	eb0877f4 	bl	0xc06622a4
c04442d0:	ebfff17a 	bl	0xc04408c0
c04442d4:	e3a01002 	mov	r1, #2
c04442d8:	eafffff0 	b	0xc04442a0
c04442dc:	e3e06015 	mvn	r6, #21
c04442e0:	eaffffdd 	b	0xc044425c
c04442e4:	e28dd014 	add	sp, sp, #20
c04442e8:	e8bd80f0 	pop	{r4, r5, r6, r7, pc}
c04442ec:	c0a04e08 	adcgt	r4, r0, r8, lsl #28
c04442f0:	c0a2d800 	adcgt	sp, r2, r0, lsl #16
c04442f4:	c0a5d4d0 	ldrdgt	sp, [r5], r0	@ <UNPREDICTABLE>
c04442f8:	eaffffb7 	b	0xc04441dc
c04442fc:	e59f3048 	ldr	r3, [pc, #72]	@ 0xc044434c
c0444300:	e92d4013 	push	{r0, r1, r4, lr}
c0444304:	e2411001 	sub	r1, r1, #1
c0444308:	e5932000 	ldr	r2, [r3]
c044430c:	e3510001 	cmp	r1, #1
c0444310:	e1a04003 	mov	r4, r3
c0444314:	83e00004 	mvnhi	r0, #4
c0444318:	e58d2004 	str	r2, [sp, #4]
c044431c:	8a000003 	bhi	0xc0444330
c0444320:	e1a0200d 	mov	r2, sp
c0444324:	e3a01010 	mov	r1, #16
c0444328:	ebfac8bf 	bl	0xc02f662c
c044432c:	e59d0000 	ldr	r0, [sp]
c0444330:	e59d2004 	ldr	r2, [sp, #4]
c0444334:	e5943000 	ldr	r3, [r4]
c0444338:	e1520003 	cmp	r2, r3
c044433c:	0a000000 	beq	0xc0444344
c0444340:	ebf35399 	bl	0xc01191ac
c0444344:	e28dd008 	add	sp, sp, #8
c0444348:	e8bd8010 	pop	{r4, pc}
c044434c:	c0a04e08 	adcgt	r4, r0, r8, lsl #28
c0444350:	e92d4070 	push	{r4, r5, r6, lr}
c0444354:	e3a01000 	mov	r1, #0
c0444358:	e1a04000 	mov	r4, r0
c044435c:	e59f002c 	ldr	r0, [pc, #44]	@ 0xc0444390
c0444360:	eb082a92 	bl	0xc064edb0
c0444364:	e59f1028 	ldr	r1, [pc, #40]	@ 0xc0444394
c0444368:	e584002c 	str	r0, [r4, #44]	@ 0x2c
c044436c:	ebf7c2a8 	bl	0xc0234e14
c0444370:	e2505000 	subs	r5, r0, #0
c0444374:	0a000003 	beq	0xc0444388
c0444378:	e594002c 	ldr	r0, [r4, #44]	@ 0x2c
c044437c:	eb08289c 	bl	0xc064e5f4
c0444380:	e3a03000 	mov	r3, #0
c0444384:	e584302c 	str	r3, [r4, #44]	@ 0x2c
c0444388:	e1a00005 	mov	r0, r5
c044438c:	e8bd8070 	pop	{r4, r5, r6, pc}
c0444390:	c0802c49 	addgt	r2, r0, r9, asr #24
c0444394:	c0731ef0 	ldrshtgt	r1, [r3], #-224	@ 0xffffff20
c0444398:	e590302c 	ldr	r3, [r0, #44]	@ 0x2c
c044439c:	e3530000 	cmp	r3, #0
c04443a0:	012fff1e 	bxeq	lr
c04443a4:	e92d4010 	push	{r4, lr}
c04443a8:	e1a04000 	mov	r4, r0
c04443ac:	e59f1010 	ldr	r1, [pc, #16]	@ 0xc04443c4
c04443b0:	e1a00003 	mov	r0, r3
c04443b4:	ebf7c2cd 	bl	0xc0234ef0
c04443b8:	e594002c 	ldr	r0, [r4, #44]	@ 0x2c
c04443bc:	e8bd4010 	pop	{r4, lr}
c04443c0:	ea08288b 	b	0xc064e5f4
c04443c4:	c0731ef0 	ldrshtgt	r1, [r3], #-224	@ 0xffffff20
c04443c8:	e92d4070 	push	{r4, r5, r6, lr}
c04443cc:	e3500007 	cmp	r0, #7
c04443d0:	e59f64ac 	ldr	r6, [pc, #1196]	@ 0xc0444884
c04443d4:	e24dd018 	sub	sp, sp, #24
c04443d8:	e1a04000 	mov	r4, r0
c04443dc:	e5963000 	ldr	r3, [r6]
c04443e0:	e58d3014 	str	r3, [sp, #20]
c04443e4:	ca000008 	bgt	0xc044440c
c04443e8:	e59f3498 	ldr	r3, [pc, #1176]	@ 0xc0444888
c04443ec:	e1a02000 	mov	r2, r0
c04443f0:	e3a01000 	mov	r1, #0
c04443f4:	e5933000 	ldr	r3, [r3]
c04443f8:	e5c301c3 	strb	r0, [r3, #451]	@ 0x1c3
c04443fc:	e59f3488 	ldr	r3, [pc, #1160]	@ 0xc044488c
c0444400:	e5930000 	ldr	r0, [r3]
c0444404:	eb0811d5 	bl	0xc0648b60
c0444408:	ea0000a3 	b	0xc044469c
c044440c:	e3500013 	cmp	r0, #19
c0444410:	0a0000d8 	beq	0xc0444778
c0444414:	ca000046 	bgt	0xc0444534
c0444418:	e350000d 	cmp	r0, #13
c044441c:	0a0000c6 	beq	0xc044473c
c0444420:	ca000014 	bgt	0xc0444478
c0444424:	e350000a 	cmp	r0, #10
c0444428:	0a0000ad 	beq	0xc04446e4
c044442c:	ca000003 	bgt	0xc0444440
c0444430:	e3500009 	cmp	r0, #9
c0444434:	0a00009e 	beq	0xc04446b4
c0444438:	e3a04000 	mov	r4, #0
c044443c:	ea000096 	b	0xc044469c
c0444440:	e350000b 	cmp	r0, #11
c0444444:	0a0000b2 	beq	0xc0444714
c0444448:	e350000c 	cmp	r0, #12
c044444c:	1afffff9 	bne	0xc0444438
c0444450:	e59f3430 	ldr	r3, [pc, #1072]	@ 0xc0444888
c0444454:	e3a04000 	mov	r4, #0
c0444458:	e5933000 	ldr	r3, [r3]
c044445c:	e5c301c4 	strb	r0, [r3, #452]	@ 0x1c4
c0444460:	e59f3424 	ldr	r3, [pc, #1060]	@ 0xc044488c
c0444464:	e5933000 	ldr	r3, [r3]
c0444468:	e5834000 	str	r4, [r3]
c044446c:	e5834004 	str	r4, [r3, #4]
c0444470:	e5834008 	str	r4, [r3, #8]
c0444474:	ea000088 	b	0xc044469c
c0444478:	e3500010 	cmp	r0, #16
c044447c:	0a000052 	beq	0xc04445cc
c0444480:	ca000022 	bgt	0xc0444510
c0444484:	e350000e 	cmp	r0, #14
c0444488:	1affffea 	bne	0xc0444438
c044448c:	e59f53f4 	ldr	r5, [pc, #1012]	@ 0xc0444888
c0444490:	e5953000 	ldr	r3, [r5]
c0444494:	e5d312a8 	ldrb	r1, [r3, #680]	@ 0x2a8
c0444498:	e3510000 	cmp	r1, #0
c044449c:	13a00f7d 	movne	r0, #500	@ 0x1f4
c04444a0:	1a0000d3 	bne	0xc04447f4
c04444a4:	e1a0000d 	mov	r0, sp
c04444a8:	e3a04f7d 	mov	r4, #500	@ 0x1f4
c04444ac:	ebf4118f 	bl	0xc0148af0
c04444b0:	e5950000 	ldr	r0, [r5]
c04444b4:	e3a02001 	mov	r2, #1
c04444b8:	e1a0100d 	mov	r1, sp
c04444bc:	e2800fa7 	add	r0, r0, #668	@ 0x29c
c04444c0:	ebf411cf 	bl	0xc0148c04
c04444c4:	e5952000 	ldr	r2, [r5]
c04444c8:	e5d232a8 	ldrb	r3, [r2, #680]	@ 0x2a8
c04444cc:	e2933000 	adds	r3, r3, #0
c04444d0:	13a03001 	movne	r3, #1
c04444d4:	e3540000 	cmp	r4, #0
c04444d8:	13a01000 	movne	r1, #0
c04444dc:	02031001 	andeq	r1, r3, #1
c04444e0:	e3510000 	cmp	r1, #0
c04444e4:	13a04001 	movne	r4, #1
c04444e8:	e3540000 	cmp	r4, #0
c04444ec:	03833001 	orreq	r3, r3, #1
c04444f0:	e3530000 	cmp	r3, #0
c04444f4:	1a0000ba 	bne	0xc04447e4
c04444f8:	e3500000 	cmp	r0, #0
c04444fc:	1a0000bc 	bne	0xc04447f4
c0444500:	e1a00004 	mov	r0, r4
c0444504:	eb087a52 	bl	0xc0662e54
c0444508:	e1a04000 	mov	r4, r0
c044450c:	eaffffe7 	b	0xc04444b0
c0444510:	e3500011 	cmp	r0, #17
c0444514:	0a000095 	beq	0xc0444770
c0444518:	e3500012 	cmp	r0, #18
c044451c:	03a01000 	moveq	r1, #0
c0444520:	1affffc4 	bne	0xc0444438
c0444524:	e59f335c 	ldr	r3, [pc, #860]	@ 0xc0444888
c0444528:	e5930000 	ldr	r0, [r3]
c044452c:	ebffe0a5 	bl	0xc043c7c8
c0444530:	eaffffc0 	b	0xc0444438
c0444534:	e3500018 	cmp	r0, #24
c0444538:	0a0000b8 	beq	0xc0444820
c044453c:	ca00000a 	bgt	0xc044456c
c0444540:	e59f3340 	ldr	r3, [pc, #832]	@ 0xc0444888
c0444544:	e3500016 	cmp	r0, #22
c0444548:	03a04000 	moveq	r4, #0
c044454c:	05933000 	ldreq	r3, [r3]
c0444550:	05c34298 	strbeq	r4, [r3, #664]	@ 0x298
c0444554:	0a000050 	beq	0xc044469c
c0444558:	da000093 	ble	0xc04447ac
c044455c:	e5933000 	ldr	r3, [r3]
c0444560:	e3a02001 	mov	r2, #1
c0444564:	e5c321c5 	strb	r2, [r3, #453]	@ 0x1c5
c0444568:	eaffffb2 	b	0xc0444438
c044456c:	e350001b 	cmp	r0, #27
c0444570:	0a0000bf 	beq	0xc0444874
c0444574:	ca000008 	bgt	0xc044459c
c0444578:	e3500019 	cmp	r0, #25
c044457c:	0a0000ba 	beq	0xc044486c
c0444580:	e350001a 	cmp	r0, #26
c0444584:	03a01000 	moveq	r1, #0
c0444588:	1affffaa 	bne	0xc0444438
c044458c:	e59f32f4 	ldr	r3, [pc, #756]	@ 0xc0444888
c0444590:	e5930000 	ldr	r0, [r3]
c0444594:	ebffe61c 	bl	0xc043de0c
c0444598:	eaffffa6 	b	0xc0444438
c044459c:	e3500050 	cmp	r0, #80	@ 0x50
c04445a0:	0a000078 	beq	0xc0444788
c04445a4:	e350007d 	cmp	r0, #125	@ 0x7d
c04445a8:	1affffa2 	bne	0xc0444438
c04445ac:	e1a03000 	mov	r3, r0
c04445b0:	e59f22d4 	ldr	r2, [pc, #724]	@ 0xc044488c
c04445b4:	e59f02cc 	ldr	r0, [pc, #716]	@ 0xc0444888
c04445b8:	e3a01d05 	mov	r1, #320	@ 0x140
c04445bc:	e5922000 	ldr	r2, [r2]
c04445c0:	e5900000 	ldr	r0, [r0]
c04445c4:	ebfff10d 	bl	0xc0440a00
c04445c8:	ea000033 	b	0xc044469c
c04445cc:	e59f52b8 	ldr	r5, [pc, #696]	@ 0xc044488c
c04445d0:	e3a02053 	mov	r2, #83	@ 0x53
c04445d4:	e5953000 	ldr	r3, [r5]
c04445d8:	e5c32000 	strb	r2, [r3]
c04445dc:	e3a02054 	mov	r2, #84	@ 0x54
c04445e0:	e5953000 	ldr	r3, [r5]
c04445e4:	e5c32001 	strb	r2, [r3, #1]
c04445e8:	e59f3298 	ldr	r3, [pc, #664]	@ 0xc0444888
c04445ec:	e5952000 	ldr	r2, [r5]
c04445f0:	e5931000 	ldr	r1, [r3]
c04445f4:	e5d11014 	ldrb	r1, [r1, #20]
c04445f8:	e5c21002 	strb	r1, [r2, #2]
c04445fc:	e5933000 	ldr	r3, [r3]
c0444600:	e5933010 	ldr	r3, [r3, #16]
c0444604:	e5d32000 	ldrb	r2, [r3]
c0444608:	e3520018 	cmp	r2, #24
c044460c:	1a000007 	bne	0xc0444630
c0444610:	e5d33001 	ldrb	r3, [r3, #1]
c0444614:	e3530000 	cmp	r3, #0
c0444618:	15953000 	ldrne	r3, [r5]
c044461c:	13a02001 	movne	r2, #1
c0444620:	1a000009 	bne	0xc044464c
c0444624:	e5953000 	ldr	r3, [r5]
c0444628:	e3a02003 	mov	r2, #3
c044462c:	ea000006 	b	0xc044464c
c0444630:	e352001c 	cmp	r2, #28
c0444634:	1afffffa 	bne	0xc0444624
c0444638:	e5d33001 	ldrb	r3, [r3, #1]
c044463c:	e3530000 	cmp	r3, #0
c0444640:	15953000 	ldrne	r3, [r5]
c0444644:	13a02002 	movne	r2, #2
c0444648:	0afffff5 	beq	0xc0444624
c044464c:	e5c32003 	strb	r2, [r3, #3]
c0444650:	eb0002d1 	bl	0xc044519c
c0444654:	e5953000 	ldr	r3, [r5]
c0444658:	e3a01001 	mov	r1, #1
c044465c:	e5c3100a 	strb	r1, [r3, #10]
c0444660:	e5c3100e 	strb	r1, [r3, #14]
c0444664:	e1a02c20 	lsr	r2, r0, #24
c0444668:	e5c30007 	strb	r0, [r3, #7]
c044466c:	e5c32004 	strb	r2, [r3, #4]
c0444670:	e1a02840 	asr	r2, r0, #16
c0444674:	e5c32005 	strb	r2, [r3, #5]
c0444678:	e1a02440 	asr	r2, r0, #8
c044467c:	e5c32006 	strb	r2, [r3, #6]
c0444680:	e3a02000 	mov	r2, #0
c0444684:	e5c32008 	strb	r2, [r3, #8]
c0444688:	e5c32009 	strb	r2, [r3, #9]
c044468c:	e5c3200b 	strb	r2, [r3, #11]
c0444690:	e5c3200c 	strb	r2, [r3, #12]
c0444694:	e5c3200d 	strb	r2, [r3, #13]
c0444698:	e5c3200f 	strb	r2, [r3, #15]
c044469c:	e59d2014 	ldr	r2, [sp, #20]
c04446a0:	e1a00004 	mov	r0, r4
c04446a4:	e5963000 	ldr	r3, [r6]
c04446a8:	e1520003 	cmp	r2, r3
c04446ac:	0a000072 	beq	0xc044487c
c04446b0:	ebf352bd 	bl	0xc01191ac
c04446b4:	e59f31cc 	ldr	r3, [pc, #460]	@ 0xc0444888
c04446b8:	e3a02008 	mov	r2, #8
c04446bc:	e3a04000 	mov	r4, #0
c04446c0:	e5933000 	ldr	r3, [r3]
c04446c4:	e5c321c3 	strb	r2, [r3, #451]	@ 0x1c3
c04446c8:	e5c301c4 	strb	r0, [r3, #452]	@ 0x1c4
c04446cc:	e59f31b8 	ldr	r3, [pc, #440]	@ 0xc044488c
c04446d0:	e5933000 	ldr	r3, [r3]
c04446d4:	e5834000 	str	r4, [r3]
c04446d8:	e5834004 	str	r4, [r3, #4]
c04446dc:	e5c34008 	strb	r4, [r3, #8]
c04446e0:	eaffffed 	b	0xc044469c
c04446e4:	e59f319c 	ldr	r3, [pc, #412]	@ 0xc0444888
c04446e8:	e3a04000 	mov	r4, #0
c04446ec:	e3a02002 	mov	r2, #2
c04446f0:	e5933000 	ldr	r3, [r3]
c04446f4:	e5c321c3 	strb	r2, [r3, #451]	@ 0x1c3
c04446f8:	e5c341c4 	strb	r4, [r3, #452]	@ 0x1c4
c04446fc:	e59f3188 	ldr	r3, [pc, #392]	@ 0xc044488c
c0444700:	e5933000 	ldr	r3, [r3]
c0444704:	e5834000 	str	r4, [r3]
c0444708:	e5834004 	str	r4, [r3, #4]
c044470c:	e1c340b8 	strh	r4, [r3, #8]
c0444710:	eaffffe1 	b	0xc044469c
c0444714:	e59f316c 	ldr	r3, [pc, #364]	@ 0xc0444888
c0444718:	e3a04000 	mov	r4, #0
c044471c:	e5933000 	ldr	r3, [r3]
c0444720:	e5c301c4 	strb	r0, [r3, #452]	@ 0x1c4
c0444724:	e59f3160 	ldr	r3, [pc, #352]	@ 0xc044488c
c0444728:	e5933000 	ldr	r3, [r3]
c044472c:	e5834004 	str	r4, [r3, #4]
c0444730:	e5834000 	str	r4, [r3]
c0444734:	e5834007 	str	r4, [r3, #7]
c0444738:	eaffffd7 	b	0xc044469c
c044473c:	e59f5144 	ldr	r5, [pc, #324]	@ 0xc0444888
c0444740:	e3a02001 	mov	r2, #1
c0444744:	e5953000 	ldr	r3, [r5]
c0444748:	e5c322de 	strb	r2, [r3, #734]	@ 0x2de
c044474c:	eb0007bf 	bl	0xc0446650
c0444750:	e5953000 	ldr	r3, [r5]
c0444754:	e3a01000 	mov	r1, #0
c0444758:	e5c312de 	strb	r1, [r3, #734]	@ 0x2de
c044475c:	e3500000 	cmp	r0, #0
c0444760:	b1a04000 	movlt	r4, r0
c0444764:	baffffcc 	blt	0xc044469c
c0444768:	e1a02004 	mov	r2, r4
c044476c:	eaffff22 	b	0xc04443fc
c0444770:	e3a01001 	mov	r1, #1
c0444774:	eaffff6a 	b	0xc0444524
c0444778:	e59f3108 	ldr	r3, [pc, #264]	@ 0xc0444888
c044477c:	e5930000 	ldr	r0, [r3]
c0444780:	ebffe07f 	bl	0xc043c984
c0444784:	eaffff2b 	b	0xc0444438
c0444788:	e59f30f8 	ldr	r3, [pc, #248]	@ 0xc0444888
c044478c:	e1a02000 	mov	r2, r0
c0444790:	e5931000 	ldr	r1, [r3]
c0444794:	e59f30f0 	ldr	r3, [pc, #240]	@ 0xc044488c
c0444798:	e2811f71 	add	r1, r1, #452	@ 0x1c4
c044479c:	e2811002 	add	r1, r1, #2
c04447a0:	e5930000 	ldr	r0, [r3]
c04447a4:	eb080f4d 	bl	0xc06484e0
c04447a8:	eaffffbb 	b	0xc044469c
c04447ac:	e5933000 	ldr	r3, [r3]
c04447b0:	e3a01049 	mov	r1, #73	@ 0x49
c04447b4:	e5c34298 	strb	r4, [r3, #664]	@ 0x298
c04447b8:	e3a04003 	mov	r4, #3
c04447bc:	e59f30c8 	ldr	r3, [pc, #200]	@ 0xc044488c
c04447c0:	e5932000 	ldr	r2, [r3]
c04447c4:	e5c21000 	strb	r1, [r2]
c04447c8:	e3a01052 	mov	r1, #82	@ 0x52
c04447cc:	e5932000 	ldr	r2, [r3]
c04447d0:	e5c21001 	strb	r1, [r2, #1]
c04447d4:	e3a02051 	mov	r2, #81	@ 0x51
c04447d8:	e5933000 	ldr	r3, [r3]
c04447dc:	e5c32002 	strb	r2, [r3, #2]
c04447e0:	eaffffad 	b	0xc044469c
c04447e4:	e2820fa7 	add	r0, r2, #668	@ 0x29c
c04447e8:	e1a0100d 	mov	r1, sp
c04447ec:	ebf41257 	bl	0xc0149150
c04447f0:	e1a00004 	mov	r0, r4
c04447f4:	e59f3090 	ldr	r3, [pc, #144]	@ 0xc044488c
c04447f8:	e1a01440 	asr	r1, r0, #8
c04447fc:	e3a04002 	mov	r4, #2
c0444800:	e5932000 	ldr	r2, [r3]
c0444804:	e5c21000 	strb	r1, [r2]
c0444808:	e3a02000 	mov	r2, #0
c044480c:	e5933000 	ldr	r3, [r3]
c0444810:	e5c30001 	strb	r0, [r3, #1]
c0444814:	e5953000 	ldr	r3, [r5]
c0444818:	e5c322a8 	strb	r2, [r3, #680]	@ 0x2a8
c044481c:	eaffff9e 	b	0xc044469c
c0444820:	e59f3060 	ldr	r3, [pc, #96]	@ 0xc0444888
c0444824:	e59f4060 	ldr	r4, [pc, #96]	@ 0xc044488c
c0444828:	e5930000 	ldr	r0, [r3]
c044482c:	e5d0308b 	ldrb	r3, [r0, #139]	@ 0x8b
c0444830:	e3530000 	cmp	r3, #0
c0444834:	15943000 	ldrne	r3, [r4]
c0444838:	15d0208c 	ldrbne	r2, [r0, #140]	@ 0x8c
c044483c:	15c32000 	strbne	r2, [r3]
c0444840:	1a000007 	bne	0xc0444864
c0444844:	e3a03001 	mov	r3, #1
c0444848:	e5942000 	ldr	r2, [r4]
c044484c:	e3a01010 	mov	r1, #16
c0444850:	ebfff06a 	bl	0xc0440a00
c0444854:	e5942000 	ldr	r2, [r4]
c0444858:	e5d23000 	ldrb	r3, [r2]
c044485c:	e7e23253 	ubfx	r3, r3, #4, #3
c0444860:	e5c23000 	strb	r3, [r2]
c0444864:	e3a04001 	mov	r4, #1
c0444868:	eaffff8b 	b	0xc044469c
c044486c:	e3a01001 	mov	r1, #1
c0444870:	eaffff45 	b	0xc044458c
c0444874:	ebffe2ea 	bl	0xc043d424
c0444878:	eafffeee 	b	0xc0444438
c044487c:	e28dd018 	add	sp, sp, #24
c0444880:	e8bd8070 	pop	{r4, r5, r6, pc}
c0444884:	c0a04e08 	adcgt	r4, r0, r8, lsl #28
c0444888:	c0a5d4d0 	ldrdgt	sp, [r5], r0	@ <UNPREDICTABLE>
c044488c:	c0a5d4c8 	adcgt	sp, r5, r8, asr #9
c0444890:	e92d41f3 	push	{r0, r1, r4, r5, r6, r7, r8, lr}
c0444894:	e3015008 	movw	r5, #4104	@ 0x1008
c0444898:	e59f81e0 	ldr	r8, [pc, #480]	@ 0xc0444a80
c044489c:	e1520005 	cmp	r2, r5
c04448a0:	e1a06001 	mov	r6, r1
c04448a4:	31a05002 	movcc	r5, r2
c04448a8:	e5980000 	ldr	r0, [r8]
c04448ac:	e5d031c4 	ldrb	r3, [r0, #452]	@ 0x1c4
c04448b0:	e353000f 	cmp	r3, #15
c04448b4:	1a00000d 	bne	0xc04448f0
c04448b8:	e59f31c4 	ldr	r3, [pc, #452]	@ 0xc0444a84
c04448bc:	e1a02005 	mov	r2, r5
c04448c0:	e1a00006 	mov	r0, r6
c04448c4:	e5931000 	ldr	r1, [r3]
c04448c8:	ebfff1bf 	bl	0xc0440fcc
c04448cc:	e5983000 	ldr	r3, [r8]
c04448d0:	e3a02000 	mov	r2, #0
c04448d4:	e5c321c4 	strb	r2, [r3, #452]	@ 0x1c4
c04448d8:	e3500000 	cmp	r0, #0
c04448dc:	01a04005 	moveq	r4, r5
c04448e0:	13e0400d 	mvnne	r4, #13
c04448e4:	e1a00004 	mov	r0, r4
c04448e8:	e28dd008 	add	sp, sp, #8
c04448ec:	e8bd81f0 	pop	{r4, r5, r6, r7, r8, pc}
c04448f0:	e5d031c2 	ldrb	r3, [r0, #450]	@ 0x1c2
c04448f4:	e1a07008 	mov	r7, r8
c04448f8:	e2233001 	eor	r3, r3, #1
c04448fc:	e355000e 	cmp	r5, #14
c0444900:	13a03000 	movne	r3, #0
c0444904:	02033001 	andeq	r3, r3, #1
c0444908:	e3530000 	cmp	r3, #0
c044490c:	0a00000c 	beq	0xc0444944
c0444910:	e5d03298 	ldrb	r3, [r0, #664]	@ 0x298
c0444914:	e3530000 	cmp	r3, #0
c0444918:	0a000009 	beq	0xc0444944
c044491c:	e3a0000e 	mov	r0, #14
c0444920:	ebfffea8 	bl	0xc04443c8
c0444924:	e2502000 	subs	r2, r0, #0
c0444928:	da000003 	ble	0xc044493c
c044492c:	e59f3150 	ldr	r3, [pc, #336]	@ 0xc0444a84
c0444930:	e1a00006 	mov	r0, r6
c0444934:	e5931000 	ldr	r1, [r3]
c0444938:	ebfff1a3 	bl	0xc0440fcc
c044493c:	e3a0400e 	mov	r4, #14
c0444940:	eaffffe7 	b	0xc04448e4
c0444944:	e2800070 	add	r0, r0, #112	@ 0x70
c0444948:	eb087655 	bl	0xc06622a4
c044494c:	e5973000 	ldr	r3, [r7]
c0444950:	e5d321c2 	ldrb	r2, [r3, #450]	@ 0x1c2
c0444954:	e3520000 	cmp	r2, #0
c0444958:	1a000015 	bne	0xc04449b4
c044495c:	e5d321c5 	ldrb	r2, [r3, #453]	@ 0x1c5
c0444960:	e3520002 	cmp	r2, #2
c0444964:	0a000012 	beq	0xc04449b4
c0444968:	e1a00005 	mov	r0, r5
c044496c:	ebfffe95 	bl	0xc04443c8
c0444970:	e2504000 	subs	r4, r0, #0
c0444974:	da000006 	ble	0xc0444994
c0444978:	e59f3104 	ldr	r3, [pc, #260]	@ 0xc0444a84
c044497c:	e1a02004 	mov	r2, r4
c0444980:	e5931000 	ldr	r1, [r3]
c0444984:	e1a00006 	mov	r0, r6
c0444988:	ebfff18f 	bl	0xc0440fcc
c044498c:	e3500000 	cmp	r0, #0
c0444990:	13e0400d 	mvnne	r4, #13
c0444994:	e5970000 	ldr	r0, [r7]
c0444998:	e3a03000 	mov	r3, #0
c044499c:	e2800070 	add	r0, r0, #112	@ 0x70
c04449a0:	e5c03152 	strb	r3, [r0, #338]	@ 0x152
c04449a4:	eb0874a7 	bl	0xc0661c48
c04449a8:	e3540000 	cmp	r4, #0
c04449ac:	a1a04005 	movge	r4, r5
c04449b0:	eaffffcb 	b	0xc04448e4
c04449b4:	e5d321c4 	ldrb	r2, [r3, #452]	@ 0x1c4
c04449b8:	e3520009 	cmp	r2, #9
c04449bc:	03a02000 	moveq	r2, #0
c04449c0:	059fc0c0 	ldreq	ip, [pc, #192]	@ 0xc0444a88
c04449c4:	0a000010 	beq	0xc0444a0c
c04449c8:	e5933010 	ldr	r3, [r3, #16]
c04449cc:	e6ff1075 	uxth	r1, r5
c04449d0:	e59f80ac 	ldr	r8, [pc, #172]	@ 0xc0444a84
c04449d4:	e5934020 	ldr	r4, [r3, #32]
c04449d8:	e5932014 	ldr	r2, [r3, #20]
c04449dc:	e5980000 	ldr	r0, [r8]
c04449e0:	e12fff34 	blx	r4
c04449e4:	e2504000 	subs	r4, r0, #0
c04449e8:	c1a02004 	movgt	r2, r4
c04449ec:	c5981000 	ldrgt	r1, [r8]
c04449f0:	caffffe3 	bgt	0xc0444984
c04449f4:	eaffffe6 	b	0xc0444994
c04449f8:	e28330bc 	add	r3, r3, #188	@ 0xbc
c04449fc:	e59c1000 	ldr	r1, [ip]
c0444a00:	e1a03083 	lsl	r3, r3, #1
c0444a04:	e19030b3 	ldrh	r3, [r0, r3]
c0444a08:	e7c13002 	strb	r3, [r1, r2]
c0444a0c:	e5970000 	ldr	r0, [r7]
c0444a10:	e1a03002 	mov	r3, r2
c0444a14:	e2822001 	add	r2, r2, #1
c0444a18:	e5d011c3 	ldrb	r1, [r0, #451]	@ 0x1c3
c0444a1c:	e1530001 	cmp	r3, r1
c0444a20:	bafffff4 	blt	0xc04449f8
c0444a24:	e5903010 	ldr	r3, [r0, #16]
c0444a28:	e59f8054 	ldr	r8, [pc, #84]	@ 0xc0444a84
c0444a2c:	e59c0000 	ldr	r0, [ip]
c0444a30:	e5932014 	ldr	r2, [r3, #20]
c0444a34:	e58d2000 	str	r2, [sp]
c0444a38:	e5934028 	ldr	r4, [r3, #40]	@ 0x28
c0444a3c:	e6ff3075 	uxth	r3, r5
c0444a40:	e5982000 	ldr	r2, [r8]
c0444a44:	e12fff34 	blx	r4
c0444a48:	e2504000 	subs	r4, r0, #0
c0444a4c:	ba000007 	blt	0xc0444a70
c0444a50:	e5981000 	ldr	r1, [r8]
c0444a54:	e1a02005 	mov	r2, r5
c0444a58:	e1a00006 	mov	r0, r6
c0444a5c:	e0811004 	add	r1, r1, r4
c0444a60:	ebfff159 	bl	0xc0440fcc
c0444a64:	e3500000 	cmp	r0, #0
c0444a68:	01a04005 	moveq	r4, r5
c0444a6c:	13e0400d 	mvnne	r4, #13
c0444a70:	e5973000 	ldr	r3, [r7]
c0444a74:	e3a02008 	mov	r2, #8
c0444a78:	e5c321c3 	strb	r2, [r3, #451]	@ 0x1c3
c0444a7c:	eaffffc4 	b	0xc0444994
c0444a80:	c0a5d4d0 	ldrdgt	sp, [r5], r0	@ <UNPREDICTABLE>
c0444a84:	c0a5d4c8 	adcgt	sp, r5, r8, asr #9
c0444a88:	c0a5d4cc 	adcgt	sp, r5, ip, asr #9
c0444a8c:	e7e73451 	ubfx	r3, r1, #8, #8
c0444a90:	e35300f1 	cmp	r3, #241	@ 0xf1
c0444a94:	1a000004 	bne	0xc0444aac
c0444a98:	e92d4010 	push	{r4, lr}
c0444a9c:	e6ef0071 	uxtb	r0, r1
c0444aa0:	ebfffe48 	bl	0xc04443c8
c0444aa4:	e0000fc0 	and	r0, r0, r0, asr #31
c0444aa8:	e8bd8010 	pop	{r4, pc}
c0444aac:	e3e00018 	mvn	r0, #24
c0444ab0:	e12fff1e 	bx	lr
c0444ab4:	e92d47ff 	push	{r0, r1, r2, r3, r4, r5, r6, r7, r8, r9, sl, lr}
c0444ab8:	e1a0a000 	mov	sl, r0
c0444abc:	e59f6130 	ldr	r6, [pc, #304]	@ 0xc0444bf4
c0444ac0:	e28d0010 	add	r0, sp, #16
c0444ac4:	e59f812c 	ldr	r8, [pc, #300]	@ 0xc0444bf8
c0444ac8:	e3a02001 	mov	r2, #1
c0444acc:	e59f7128 	ldr	r7, [pc, #296]	@ 0xc0444bfc
c0444ad0:	e3a01000 	mov	r1, #0
c0444ad4:	e5963000 	ldr	r3, [r6]
c0444ad8:	e58d300c 	str	r3, [sp, #12]
c0444adc:	e5983004 	ldr	r3, [r8, #4]
c0444ae0:	e1a03a03 	lsl	r3, r3, #20
c0444ae4:	e5203008 	str	r3, [r0, #-8]!
c0444ae8:	e1a03007 	mov	r3, r7
c0444aec:	ebf6417b 	bl	0xc01d50e0
c0444af0:	e2505000 	subs	r5, r0, #0
c0444af4:	ba000036 	blt	0xc0444bd4
c0444af8:	e59f5100 	ldr	r5, [pc, #256]	@ 0xc0444c00
c0444afc:	e2880008 	add	r0, r8, #8
c0444b00:	e59d3008 	ldr	r3, [sp, #8]
c0444b04:	e1a04008 	mov	r4, r8
c0444b08:	e1a01005 	mov	r1, r5
c0444b0c:	e1a03a23 	lsr	r3, r3, #20
c0444b10:	e5883004 	str	r3, [r8, #4]
c0444b14:	ebf64094 	bl	0xc01d4d6c
c0444b18:	e3a02001 	mov	r2, #1
c0444b1c:	e2880008 	add	r0, r8, #8
c0444b20:	e3a03000 	mov	r3, #0
c0444b24:	e5885054 	str	r5, [r8, #84]	@ 0x54
c0444b28:	e5883050 	str	r3, [r8, #80]	@ 0x50
c0444b2c:	e59d1008 	ldr	r1, [sp, #8]
c0444b30:	ebf64031 	bl	0xc01d4bfc
c0444b34:	e2505000 	subs	r5, r0, #0
c0444b38:	1a00000e 	bne	0xc0444b78
c0444b3c:	e2882068 	add	r2, r8, #104	@ 0x68
c0444b40:	e1a01007 	mov	r1, r7
c0444b44:	ebfd975b 	bl	0xc03aa8b8
c0444b48:	e3700a01 	cmn	r0, #4096	@ 0x1000
c0444b4c:	e1a09000 	mov	r9, r0
c0444b50:	e5840068 	str	r0, [r4, #104]	@ 0x68
c0444b54:	9a00000d 	bls	0xc0444b90
c0444b58:	e1a01005 	mov	r1, r5
c0444b5c:	e1a03007 	mov	r3, r7
c0444b60:	e3a02c01 	mov	r2, #256	@ 0x100
c0444b64:	e5980004 	ldr	r0, [r8, #4]
c0444b68:	ebf64053 	bl	0xc01d4cbc
c0444b6c:	e1a05009 	mov	r5, r9
c0444b70:	e59f008c 	ldr	r0, [pc, #140]	@ 0xc0444c04
c0444b74:	ebf64045 	bl	0xc01d4c90
c0444b78:	e3a01001 	mov	r1, #1
c0444b7c:	e59d0008 	ldr	r0, [sp, #8]
c0444b80:	ebf63ff3 	bl	0xc01d4b54
c0444b84:	e3a03000 	mov	r3, #0
c0444b88:	e5843068 	str	r3, [r4, #104]	@ 0x68
c0444b8c:	ea000010 	b	0xc0444bd4
c0444b90:	e5982004 	ldr	r2, [r8, #4]
c0444b94:	e1a03005 	mov	r3, r5
c0444b98:	e58d7000 	str	r7, [sp]
c0444b9c:	e1a01005 	mov	r1, r5
c0444ba0:	e1a02a02 	lsl	r2, r2, #20
c0444ba4:	ebfd86dd 	bl	0xc03a6720
c0444ba8:	e3700a01 	cmn	r0, #4096	@ 0x1000
c0444bac:	9a000003 	bls	0xc0444bc0
c0444bb0:	e5980068 	ldr	r0, [r8, #104]	@ 0x68
c0444bb4:	e3e05012 	mvn	r5, #18
c0444bb8:	ebfd95eb 	bl	0xc03aa36c
c0444bbc:	eaffffeb 	b	0xc0444b70
c0444bc0:	e288206c 	add	r2, r8, #108	@ 0x6c
c0444bc4:	e59f103c 	ldr	r1, [pc, #60]	@ 0xc0444c08
c0444bc8:	e28a0fa7 	add	r0, sl, #668	@ 0x29c
c0444bcc:	ebf40f53 	bl	0xc0148920
c0444bd0:	e5ca52a8 	strb	r5, [sl, #680]	@ 0x2a8
c0444bd4:	e59d200c 	ldr	r2, [sp, #12]
c0444bd8:	e1a00005 	mov	r0, r5
c0444bdc:	e5963000 	ldr	r3, [r6]
c0444be0:	e1520003 	cmp	r2, r3
c0444be4:	0a000000 	beq	0xc0444bec
c0444be8:	ebf3516f 	bl	0xc01191ac
c0444bec:	e28dd010 	add	sp, sp, #16
c0444bf0:	e8bd87f0 	pop	{r4, r5, r6, r7, r8, r9, sl, pc}
c0444bf4:	c0a04e08 	adcgt	r4, r0, r8, lsl #28
c0444bf8:	c0a5d4f8 	strdgt	sp, [r5], r8	@ <UNPREDICTABLE>
c0444bfc:	c0802c5b 	addgt	r2, r0, fp, asr ip
c0444c00:	c0a2db98 	umlalgt	sp, r2, r8, fp
c0444c04:	c0a5d500 	adcgt	sp, r5, r0, lsl #10
c0444c08:	c0802c67 	addgt	r2, r0, r7, ror #24
c0444c0c:	e92d4070 	push	{r4, r5, r6, lr}
c0444c10:	e59f5038 	ldr	r5, [pc, #56]	@ 0xc0444c50
c0444c14:	e5950068 	ldr	r0, [r5, #104]	@ 0x68
c0444c18:	e5954004 	ldr	r4, [r5, #4]
c0444c1c:	e3500000 	cmp	r0, #0
c0444c20:	08bd8070 	popeq	{r4, r5, r6, pc}
c0444c24:	e1a04a04 	lsl	r4, r4, #20
c0444c28:	e1a01004 	mov	r1, r4
c0444c2c:	ebfd80e6 	bl	0xc03a4fcc
c0444c30:	e5950068 	ldr	r0, [r5, #104]	@ 0x68
c0444c34:	ebfd95cc 	bl	0xc03aa36c
c0444c38:	e2850008 	add	r0, r5, #8
c0444c3c:	ebf64013 	bl	0xc01d4c90
c0444c40:	e1a00004 	mov	r0, r4
c0444c44:	e3a01001 	mov	r1, #1
c0444c48:	e8bd4070 	pop	{r4, r5, r6, lr}
c0444c4c:	eaf63fc0 	b	0xc01d4b54
c0444c50:	c0a5d4f8 	strdgt	sp, [r5], r8	@ <UNPREDICTABLE>
c0444c54:	e92d4037 	push	{r0, r1, r2, r4, r5, lr}
c0444c58:	e1a05002 	mov	r5, r2
c0444c5c:	e59f407c 	ldr	r4, [pc, #124]	@ 0xc0444ce0
c0444c60:	e3a02000 	mov	r2, #0
c0444c64:	e5943000 	ldr	r3, [r4]
c0444c68:	e5832000 	str	r2, [r3]
c0444c6c:	e1a03000 	mov	r3, r0
c0444c70:	e58d1000 	str	r1, [sp]
c0444c74:	e3011008 	movw	r1, #4104	@ 0x1008
c0444c78:	e5940000 	ldr	r0, [r4]
c0444c7c:	e59f2060 	ldr	r2, [pc, #96]	@ 0xc0444ce4
c0444c80:	eb085a22 	bl	0xc065b510
c0444c84:	e5941000 	ldr	r1, [r4]
c0444c88:	e2504000 	subs	r4, r0, #0
c0444c8c:	aa00000f 	bge	0xc0444cd0
c0444c90:	e59f2050 	ldr	r2, [pc, #80]	@ 0xc0444ce8
c0444c94:	e5d23000 	ldrb	r3, [r2]
c0444c98:	e3530000 	cmp	r3, #0
c0444c9c:	1a000005 	bne	0xc0444cb8
c0444ca0:	e3a01001 	mov	r1, #1
c0444ca4:	e59f0040 	ldr	r0, [pc, #64]	@ 0xc0444cec
c0444ca8:	e5c21000 	strb	r1, [r2]
c0444cac:	e3a02009 	mov	r2, #9
c0444cb0:	e3a01096 	mov	r1, #150	@ 0x96
c0444cb4:	ebf351c4 	bl	0xc01193cc
c0444cb8:	e1a00004 	mov	r0, r4
c0444cbc:	e3500000 	cmp	r0, #0
c0444cc0:	b3a04000 	movlt	r4, #0
c0444cc4:	e1a00004 	mov	r0, r4
c0444cc8:	e28dd00c 	add	sp, sp, #12
c0444ccc:	e8bd8030 	pop	{r4, r5, pc}
c0444cd0:	e1a02004 	mov	r2, r4
c0444cd4:	e1a00005 	mov	r0, r5
c0444cd8:	ebfff0bb 	bl	0xc0440fcc
c0444cdc:	eafffff6 	b	0xc0444cbc
c0444ce0:	c0a5d4c8 	adcgt	sp, r5, r8, asr #9
c0444ce4:	c0802c7b 	addgt	r2, r0, fp, ror ip
c0444ce8:	c0a3e7dd 	ldrdgt	lr, [r3], sp	@ <UNPREDICTABLE>
c0444cec:	c07ccde8 	rsbsgt	ip, ip, r8, ror #27
c0444cf0:	e92d4010 	push	{r4, lr}
c0444cf4:	e1a04003 	mov	r4, r3
c0444cf8:	e59f3020 	ldr	r3, [pc, #32]	@ 0xc0444d20
c0444cfc:	e1a02001 	mov	r2, r1
c0444d00:	e59f001c 	ldr	r0, [pc, #28]	@ 0xc0444d24
c0444d04:	e5933000 	ldr	r3, [r3]
c0444d08:	e5d31193 	ldrb	r1, [r3, #403]	@ 0x193
c0444d0c:	ebffffd0 	bl	0xc0444c54
c0444d10:	e3a02000 	mov	r2, #0
c0444d14:	e8840005 	stm	r4, {r0, r2}
c0444d18:	e1a00002 	mov	r0, r2
c0444d1c:	e8bd8010 	pop	{r4, pc}
c0444d20:	c0a5d4d0 	ldrdgt	sp, [r5], r0	@ <UNPREDICTABLE>
c0444d24:	c0802c84 	addgt	r2, r0, r4, lsl #25
c0444d28:	e92d4010 	push	{r4, lr}
c0444d2c:	e1a04003 	mov	r4, r3
c0444d30:	e59f3020 	ldr	r3, [pc, #32]	@ 0xc0444d58
c0444d34:	e1a02001 	mov	r2, r1
c0444d38:	e59f001c 	ldr	r0, [pc, #28]	@ 0xc0444d5c
c0444d3c:	e5933000 	ldr	r3, [r3]
c0444d40:	e5d31194 	ldrb	r1, [r3, #404]	@ 0x194
c0444d44:	ebffffc2 	bl	0xc0444c54
c0444d48:	e3a02000 	mov	r2, #0
c0444d4c:	e8840005 	stm	r4, {r0, r2}
c0444d50:	e1a00002 	mov	r0, r2
c0444d54:	e8bd8010 	pop	{r4, pc}
c0444d58:	c0a5d4d0 	ldrdgt	sp, [r5], r0	@ <UNPREDICTABLE>
c0444d5c:	c0802c90 	umullgt	r2, r0, r0, ip
c0444d60:	e92d4010 	push	{r4, lr}
c0444d64:	e1a04003 	mov	r4, r3
c0444d68:	e59f3020 	ldr	r3, [pc, #32]	@ 0xc0444d90
c0444d6c:	e1a02001 	mov	r2, r1
c0444d70:	e59f001c 	ldr	r0, [pc, #28]	@ 0xc0444d94
c0444d74:	e5933000 	ldr	r3, [r3]
c0444d78:	e5d31195 	ldrb	r1, [r3, #405]	@ 0x195
c0444d7c:	ebffffb4 	bl	0xc0444c54
c0444d80:	e3a02000 	mov	r2, #0
c0444d84:	e8840005 	stm	r4, {r0, r2}
c0444d88:	e1a00002 	mov	r0, r2
c0444d8c:	e8bd8010 	pop	{r4, pc}
c0444d90:	c0a5d4d0 	ldrdgt	sp, [r5], r0	@ <UNPREDICTABLE>
c0444d94:	c0802c9e 	umullgt	r2, r0, lr, ip
c0444d98:	e92d4010 	push	{r4, lr}
c0444d9c:	e1a04003 	mov	r4, r3
c0444da0:	e59f3020 	ldr	r3, [pc, #32]	@ 0xc0444dc8
c0444da4:	e1a02001 	mov	r2, r1
c0444da8:	e59f001c 	ldr	r0, [pc, #28]	@ 0xc0444dcc
c0444dac:	e5933000 	ldr	r3, [r3]
c0444db0:	e5d31196 	ldrb	r1, [r3, #406]	@ 0x196
c0444db4:	ebffffa6 	bl	0xc0444c54
c0444db8:	e3a02000 	mov	r2, #0
c0444dbc:	e8840005 	stm	r4, {r0, r2}
c0444dc0:	e1a00002 	mov	r0, r2
c0444dc4:	e8bd8010 	pop	{r4, pc}
c0444dc8:	c0a5d4d0 	ldrdgt	sp, [r5], r0	@ <UNPREDICTABLE>
c0444dcc:	c0802cad 	addgt	r2, r0, sp, lsr #25
c0444dd0:	e92d4010 	push	{r4, lr}
c0444dd4:	e1a04003 	mov	r4, r3
c0444dd8:	e59f3020 	ldr	r3, [pc, #32]	@ 0xc0444e00
c0444ddc:	e1a02001 	mov	r2, r1
c0444de0:	e59f001c 	ldr	r0, [pc, #28]	@ 0xc0444e04
c0444de4:	e5933000 	ldr	r3, [r3]
c0444de8:	e5d31197 	ldrb	r1, [r3, #407]	@ 0x197
c0444dec:	ebffff98 	bl	0xc0444c54
c0444df0:	e3a02000 	mov	r2, #0
c0444df4:	e8840005 	stm	r4, {r0, r2}
c0444df8:	e1a00002 	mov	r0, r2
c0444dfc:	e8bd8010 	pop	{r4, pc}
c0444e00:	c0a5d4d0 	ldrdgt	sp, [r5], r0	@ <UNPREDICTABLE>
c0444e04:	c0802cc4 	addgt	r2, r0, r4, asr #25
c0444e08:	e92d4010 	push	{r4, lr}
c0444e0c:	e1a04003 	mov	r4, r3
c0444e10:	e59f3020 	ldr	r3, [pc, #32]	@ 0xc0444e38
c0444e14:	e1a02001 	mov	r2, r1
c0444e18:	e59f001c 	ldr	r0, [pc, #28]	@ 0xc0444e3c
c0444e1c:	e5933000 	ldr	r3, [r3]
c0444e20:	e5d31198 	ldrb	r1, [r3, #408]	@ 0x198
c0444e24:	ebffff8a 	bl	0xc0444c54
c0444e28:	e3a02000 	mov	r2, #0
c0444e2c:	e8840005 	stm	r4, {r0, r2}
c0444e30:	e1a00002 	mov	r0, r2
c0444e34:	e8bd8010 	pop	{r4, pc}
c0444e38:	c0a5d4d0 	ldrdgt	sp, [r5], r0	@ <UNPREDICTABLE>
c0444e3c:	c0802cd1 	ldrdgt	r2, [r0], r1
c0444e40:	e92d4010 	push	{r4, lr}
c0444e44:	e1a04003 	mov	r4, r3
c0444e48:	e59f3020 	ldr	r3, [pc, #32]	@ 0xc0444e70
c0444e4c:	e1a02001 	mov	r2, r1
c0444e50:	e59f001c 	ldr	r0, [pc, #28]	@ 0xc0444e74
c0444e54:	e5933000 	ldr	r3, [r3]
c0444e58:	e5d31199 	ldrb	r1, [r3, #409]	@ 0x199
c0444e5c:	ebffff7c 	bl	0xc0444c54
c0444e60:	e3a02000 	mov	r2, #0
c0444e64:	e8840005 	stm	r4, {r0, r2}
c0444e68:	e1a00002 	mov	r0, r2
c0444e6c:	e8bd8010 	pop	{r4, pc}
c0444e70:	c0a5d4d0 	ldrdgt	sp, [r5], r0	@ <UNPREDICTABLE>
c0444e74:	c0802ce3 	addgt	r2, r0, r3, ror #25
c0444e78:	e52de004 	push	{lr}		@ (str lr, [sp, #-4]!)
c0444e7c:	e1a0c001 	mov	ip, r1
c0444e80:	e5903010 	ldr	r3, [r0, #16]
c0444e84:	e1a01002 	mov	r1, r2
c0444e88:	e1a0000c 	mov	r0, ip
c0444e8c:	e593e02c 	ldr	lr, [r3, #44]	@ 0x2c
c0444e90:	e5932014 	ldr	r2, [r3, #20]
c0444e94:	e1a0300e 	mov	r3, lr
c0444e98:	e49de004 	pop	{lr}		@ (ldr lr, [sp], #4)
c0444e9c:	e12fff13 	bx	r3
c0444ea0:	e5d03000 	ldrb	r3, [r0]
c0444ea4:	e3530043 	cmp	r3, #67	@ 0x43
c0444ea8:	1a000013 	bne	0xc0444efc
c0444eac:	e5d03001 	ldrb	r3, [r0, #1]
c0444eb0:	e3530046 	cmp	r3, #70	@ 0x46
c0444eb4:	1a000010 	bne	0xc0444efc
c0444eb8:	e5d03002 	ldrb	r3, [r0, #2]
c0444ebc:	e3530054 	cmp	r3, #84	@ 0x54
c0444ec0:	1a00000d 	bne	0xc0444efc
c0444ec4:	e5d03003 	ldrb	r3, [r0, #3]
c0444ec8:	e3530031 	cmp	r3, #49	@ 0x31
c0444ecc:	1a00000a 	bne	0xc0444efc
c0444ed0:	e5d03008 	ldrb	r3, [r0, #8]
c0444ed4:	e3530084 	cmp	r3, #132	@ 0x84
c0444ed8:	e5d0300b 	ldrb	r3, [r0, #11]
c0444edc:	15d0200a 	ldrbne	r2, [r0, #10]
c0444ee0:	05d0200c 	ldrbeq	r2, [r0, #12]
c0444ee4:	e3a00000 	mov	r0, #0
c0444ee8:	00823403 	addeq	r3, r2, r3, lsl #8
c0444eec:	10833402 	addne	r3, r3, r2, lsl #8
c0444ef0:	e2833003 	add	r3, r3, #3
c0444ef4:	e5813000 	str	r3, [r1]
c0444ef8:	e12fff1e 	bx	lr
c0444efc:	e3e00015 	mvn	r0, #21
c0444f00:	e12fff1e 	bx	lr
c0444f04:	e043c002 	sub	ip, r3, r2
c0444f08:	e2433001 	sub	r3, r3, #1
c0444f0c:	e24cc001 	sub	ip, ip, #1
c0444f10:	e92d4010 	push	{r4, lr}
c0444f14:	e6efc07c 	uxtb	ip, ip
c0444f18:	e3a0e001 	mov	lr, #1
c0444f1c:	e1a0331e 	lsl	r3, lr, r3
c0444f20:	e180021e 	orr	r0, r0, lr, lsl r2
c0444f24:	e3a0e000 	mov	lr, #0
c0444f28:	e6ef207e 	uxtb	r2, lr
c0444f2c:	e28ee001 	add	lr, lr, #1
c0444f30:	e0134211 	ands	r4, r3, r1, lsl r2
c0444f34:	104c2002 	subne	r2, ip, r2
c0444f38:	10211210 	eorne	r1, r1, r0, lsl r2
c0444f3c:	e6ef207e 	uxtb	r2, lr
c0444f40:	e152000c 	cmp	r2, ip
c0444f44:	9afffff7 	bls	0xc0444f28
c0444f48:	e1a00001 	mov	r0, r1
c0444f4c:	e8bd8010 	pop	{r4, pc}
c0444f50:	e92d41f0 	push	{r4, r5, r6, r7, r8, lr}
c0444f54:	e1a04001 	mov	r4, r1
c0444f58:	e1a06001 	mov	r6, r1
c0444f5c:	e4d41001 	ldrb	r1, [r4], #1
c0444f60:	e1a05000 	mov	r5, r0
c0444f64:	e1a07002 	mov	r7, r2
c0444f68:	e0443006 	sub	r3, r4, r6
c0444f6c:	e1570003 	cmp	r7, r3
c0444f70:	8a000009 	bhi	0xc0444f9c
c0444f74:	e3a04003 	mov	r4, #3
c0444f78:	e1a01401 	lsl	r1, r1, #8
c0444f7c:	e3a03020 	mov	r3, #32
c0444f80:	e3a02018 	mov	r2, #24
c0444f84:	e1a00005 	mov	r0, r5
c0444f88:	ebffffdd 	bl	0xc0444f04
c0444f8c:	e2544001 	subs	r4, r4, #1
c0444f90:	e1a01000 	mov	r1, r0
c0444f94:	1afffff7 	bne	0xc0444f78
c0444f98:	e8bd81f0 	pop	{r4, r5, r6, r7, r8, pc}
c0444f9c:	e4d40001 	ldrb	r0, [r4], #1
c0444fa0:	e3a03020 	mov	r3, #32
c0444fa4:	e3a02018 	mov	r2, #24
c0444fa8:	e1801401 	orr	r1, r0, r1, lsl #8
c0444fac:	e1a00005 	mov	r0, r5
c0444fb0:	ebffffd3 	bl	0xc0444f04
c0444fb4:	e1a01000 	mov	r1, r0
c0444fb8:	eaffffea 	b	0xc0444f68
c0444fbc:	e92d4010 	push	{r4, lr}
c0444fc0:	e1a04000 	mov	r4, r0
c0444fc4:	e59f0008 	ldr	r0, [pc, #8]	@ 0xc0444fd4
c0444fc8:	ebffffe0 	bl	0xc0444f50
c0444fcc:	e5840000 	str	r0, [r4]
c0444fd0:	e8bd8010 	pop	{r4, pc}
c0444fd4:	00864cfb 	strdeq	r4, [r6], fp
c0444fd8:	e92d40f7 	push	{r0, r1, r2, r4, r5, r6, r7, lr}
c0444fdc:	e1a06003 	mov	r6, r3
c0444fe0:	e59f71ac 	ldr	r7, [pc, #428]	@ 0xc0445194
c0444fe4:	e1a04000 	mov	r4, r0
c0444fe8:	e59de020 	ldr	lr, [sp, #32]
c0444fec:	e59dc024 	ldr	ip, [sp, #36]	@ 0x24
c0444ff0:	e5973000 	ldr	r3, [r7]
c0444ff4:	e58d3004 	str	r3, [sp, #4]
c0444ff8:	e3a03000 	mov	r3, #0
c0444ffc:	e5813000 	str	r3, [r1]
